MPASM 5.87                   VAI DAR BOM.ASM   12-15-2020  2:16:19         PAGE  1


LOC  OBJECT CODE     LINE SOURCE TEXT
  VALUE

                      00001 ;*******************************************************************************
                      00002 ;                                                                              *
                      00003 ;    Microchip licenses this software to you solely for use with Microchip     *
                      00004 ;    products. The software is owned by Microchip and/or its licensors, and is *
                      00005 ;    protected under applicable copyright laws.  All rights reserved.          *
                      00006 ;                                                                              *
                      00007 ;    This software and any accompanying information is for suggestion only.    *
                      00008 ;    It shall not be deemed to modify Microchip?s standard warranty for its    *
                      00009 ;    products.  It is your responsibility to ensure that this software meets   *
                      00010 ;    your requirements.                                                        *
                      00011 ;                                                                              *
                      00012 ;    SOFTWARE IS PROVIDED "AS IS".  MICROCHIP AND ITS LICENSORS EXPRESSLY      *
                      00013 ;    DISCLAIM ANY WARRANTY OF ANY KIND, WHETHER EXPRESS OR IMPLIED, INCLUDING  *
                      00014 ;    BUT NOT LIMITED TO, THE IMPLIED WARRANTIES OF MERCHANTABILITY, FITNESS    *
                      00015 ;    FOR A PARTICULAR PURPOSE, OR NON-INFRINGEMENT. IN NO EVENT SHALL          *
                      00016 ;    MICROCHIP OR ITS LICENSORS BE LIABLE FOR ANY INCIDENTAL, SPECIAL,         *
                      00017 ;    INDIRECT OR CONSEQUENTIAL DAMAGES, LOST PROFITS OR LOST DATA, HARM TO     *
                      00018 ;    YOUR EQUIPMENT, COST OF PROCUREMENT OF SUBSTITUTE GOODS, TECHNOLOGY OR    *
                      00019 ;    SERVICES, ANY CLAIMS BY THIRD PARTIES (INCLUDING BUT NOT LIMITED TO ANY   *
                      00020 ;    DEFENSE THEREOF), ANY CLAIMS FOR INDEMNITY OR CONTRIBUTION, OR OTHER      *
                      00021 ;    SIMILAR COSTS.                                                            *
                      00022 ;                                                                              *
                      00023 ;    To the fullest extend allowed by law, Microchip and its licensors         *
                      00024 ;    liability shall not exceed the amount of fee, if any, that you have paid  *
                      00025 ;    directly to Microchip to use this software.                               *
                      00026 ;                                                                              *
                      00027 ;    MICROCHIP PROVIDES THIS SOFTWARE CONDITIONALLY UPON YOUR ACCEPTANCE OF    *
                      00028 ;    THESE TERMS.                                                              *
                      00029 ;                                                                              *
                      00030 ;*******************************************************************************
                      00031 ;                                                                              *
                      00032 ;    Filename:                                                                 *
                      00033 ;    Date:                                                                     *
                      00034 ;    File Version:                                                             *
                      00035 ;    Author:                                                                   *
                      00036 ;    Company:                                                                  *
                      00037 ;    Description:                                                              *
                      00038 ;                                                                              *
                      00039 ;*******************************************************************************
                      00040 ;                                                                              *
                      00041 ;    Notes: In the MPLAB X Help, refer to the MPASM Assembler documentation    *
                      00042 ;    for information on assembly instructions.                                 *
                      00043 ;                                                                              *
                      00044 ;*******************************************************************************
                      00045 ;                                                                              *
                      00046 ;    Known Issues: This template is designed for relocatable code.  As such,   *
                      00047 ;    build errors such as "Directive only allowed when generating an object    *
                      00048 ;    file" will result when the 'Build in Absolute Mode' checkbox is selected  *
                      00049 ;    in the project properties.  Designing code in absolute mode is            *
                      00050 ;    antiquated - use relocatable mode.                                        *
                      00051 ;                                                                              *
                      00052 ;*******************************************************************************
                      00053 ;                                                                              *
MPASM 5.87                   VAI DAR BOM.ASM   12-15-2020  2:16:19         PAGE  2


LOC  OBJECT CODE     LINE SOURCE TEXT
  VALUE

                      00054 ;    Revision History:                                                         *
                      00055 ;                                                                              *
                      00056 ;*******************************************************************************
                      00057 
                      00058 
                      00059 
                      00060 ;*******************************************************************************
                      00061 ; Processor Inclusion
                      00062      list           p=18f4550        ; list directive to define processor
                      00063    INCLUDE <P18F4550.INC>
                      00001         LIST
                      00002 
                      00003 ;==========================================================================
                      00004 ; Build date : Jan 06 2020
                      00005 ;  MPASM PIC18F4550 processor include
                      00006 ; 
                      00007 ;  (c) Copyright 1999-2020 Microchip Technology, All rights reserved
                      00008 ;==========================================================================
                      00009 
                      01765         LIST
                      00064 ;
                      00065 ;*******************************************************************************
                      00066 ;                       CONFIGURAÇOES 
                      00067 ;*******************************************************************************
                      00068 
                      00069 
                      00070 ; TODO INSERT CONFIG HERE
                      00071 ; CONFIG1L
                      00072   CONFIG  PLLDIV = 5           ; PLL Prescaler Selection bits (No prescale (4 MHz oscillator input drive
                            s PLL directly))
                      00073   CONFIG  CPUDIV = OSC1_PLL2    ; System Clock Postscaler Selection bits ([Primary Oscillator Src: /1][9
                            6 MHz PLL Src: /2])
                      00074   CONFIG  USBDIV = 1            ; USB Clock Selection bit (used in Full-Speed USB mode only; UCFG:FSEN =
                             1) (USB clock source comes directly from the primary oscillator block with no postscale)
                      00075 
                      00076 ; CONFIG1H
                      00077   CONFIG  FOSC = HS       ; Oscillator Selection bits (Internal oscillator, HS oscillator used by USB (I
                            NTHS))
                      00078   CONFIG  FCMEN = OFF           ; Fail-Safe Clock Monitor Enable bit (Fail-Safe Clock Monitor disabled)
                      00079   CONFIG  IESO = OFF            ; Internal/External Oscillator Switchover bit (Oscillator Switchover mod
                            e disabled)
                      00080 
                      00081 ; CONFIG2L
                      00082   CONFIG  PWRT = OFF            ; Power-up Timer Enable bit (PWRT disabled)
                      00083   CONFIG  BOR = OFF             ; Brown-out Reset Enable bits (Brown-out Reset disabled in hardware and 
                            software)
                      00084   CONFIG  BORV = 3              ; Brown-out Reset Voltage bits (Minimum setting 2.05V)
                      00085   CONFIG  VREGEN = OFF          ; USB Voltage Regulator Enable bit (USB voltage regulator disabled)
                      00086 
                      00087 ; CONFIG2H
                      00088   CONFIG  WDT = OFF             ; Watchdog Timer Enable bit (WDT disabled (control is placed on the SWDT
                            EN bit))
                      00089   CONFIG  WDTPS = 32768         ; Watchdog Timer Postscale Select bits (1:32768)
MPASM 5.87                   VAI DAR BOM.ASM   12-15-2020  2:16:19         PAGE  3


LOC  OBJECT CODE     LINE SOURCE TEXT
  VALUE

                      00090 
                      00091 ; CONFIG3H
                      00092   CONFIG  CCP2MX = ON           ; CCP2 MUX bit (CCP2 input/output is multiplexed with RC1)
                      00093   CONFIG  PBADEN = OFF          ; PORTB A/D Enable bit (PORTB<4:0> pins are configured as digital I/O on
                             Reset)
                      00094   CONFIG  LPT1OSC = OFF         ; Low-Power Timer 1 Oscillator Enable bit (Timer1 configured for higher 
                            power operation)
                      00095   CONFIG  MCLRE = OFF         ; MCLR Pin Enable bit (MCLR pin enabled; RE3 input pin disabled)
                      00096 
                      00097 ; CONFIG4L
                      00098   CONFIG  STVREN = OFF          ; Stack Full/Underflow Reset Enable bit (Stack full/underflow will not c
                            ause Reset)
                      00099   CONFIG  LVP = OFF             ; Single-Supply ICSP Enable bit (Single-Supply ICSP disabled)
                      00100   CONFIG  ICPRT = OFF           ; Dedicated In-Circuit Debug/Programming Port (ICPORT) Enable bit (ICPOR
                            T disabled)
                      00101   CONFIG  XINST = OFF           ; Extended Instruction Set Enable bit (Instruction set extension and Ind
                            exed Addressing mode disabled (Legacy mode))
                      00102 
                      00103 ; CONFIG5L
                      00104   CONFIG  CP0 = OFF             ; Code Protection bit (Block 0 (000800-001FFFh) is not code-protected)
                      00105   CONFIG  CP1 = OFF             ; Code Protection bit (Block 1 (002000-003FFFh) is not code-protected)
                      00106   CONFIG  CP2 = OFF             ; Code Protection bit (Block 2 (004000-005FFFh) is not code-protected)
                      00107   CONFIG  CP3 = OFF             ; Code Protection bit (Block 3 (006000-007FFFh) is not code-protected)
                      00108 
                      00109 ; CONFIG5H
                      00110   CONFIG  CPB = OFF             ; Boot Block Code Protection bit (Boot block (000000-0007FFh) is not cod
                            e-protected)
                      00111   CONFIG  CPD = OFF             ; Data EEPROM Code Protection bit (Data EEPROM is not code-protected)
                      00112 
                      00113 ; CONFIG6L
                      00114   CONFIG  WRT0 = OFF            ; Write Protection bit (Block 0 (000800-001FFFh) is not write-protected)
                      00115   CONFIG  WRT1 = OFF            ; Write Protection bit (Block 1 (002000-003FFFh) is not write-protected)
                      00116   CONFIG  WRT2 = OFF            ; Write Protection bit (Block 2 (004000-005FFFh) is not write-protected)
                      00117   CONFIG  WRT3 = OFF            ; Write Protection bit (Block 3 (006000-007FFFh) is not write-protected)
                      00118 
                      00119 ; CONFIG6H
                      00120   CONFIG  WRTC = OFF            ; Configuration Register Write Protection bit (Configuration registers (
                            300000-3000FFh) are not write-protected)
                      00121   CONFIG  WRTB = OFF            ; Boot Block Write Protection bit (Boot block (000000-0007FFh) is not wr
                            ite-protected)
                      00122   CONFIG  WRTD = OFF            ; Data EEPROM Write Protection bit (Data EEPROM is not write-protected)
                      00123 
                      00124 ; CONFIG7L
                      00125   CONFIG  EBTR0 = OFF           ; Table Read Protection bit (Block 0 (000800-001FFFh) is not protected f
                            rom table reads executed in other blocks)
                      00126   CONFIG  EBTR1 = OFF           ; Table Read Protection bit (Block 1 (002000-003FFFh) is not protected f
                            rom table reads executed in other blocks)
                      00127   CONFIG  EBTR2 = OFF           ; Table Read Protection bit (Block 2 (004000-005FFFh) is not protected f
                            rom table reads executed in other blocks)
                      00128   CONFIG  EBTR3 = OFF           ; Table Read Protection bit (Block 3 (006000-007FFFh) is not protected f
                            rom table reads executed in other blocks)
                      00129 
                      00130 ; CONFIG7H
MPASM 5.87                   VAI DAR BOM.ASM   12-15-2020  2:16:19         PAGE  4


LOC  OBJECT CODE     LINE SOURCE TEXT
  VALUE

                      00131   CONFIG  EBTRB = OFF           ; Boot Block Table Read Protection bit (Boot block (000000-0007FFh) is n
                            ot protected from table reads executed in other blocks)
                      00132 
                      00133 
                      00134 ;*******************************************************************************
                      00135 ;                              VARIAVEIS 
                      00136 ;*******************************************************************************;
                      00137         UDATA
                      00138                                     ;VARIAVEIS DAS ENTRADAS ANALOGICAS
                      00139         #DEFINE     VALOR_ADC       0X20
                      00140                                     ;VARIAVEIS DAS ROTINAS DE TEMPO
                      00141         #DEFINE     W_TEMP          0X21
                      00142         #DEFINE     STATUS_TEMP     0X22
                      00143         #DEFINE     TEMPO0          0X23                
                      00144         #DEFINE     TEMPO1          0X24                
                      00145         #DEFINE     TEMPO2          0x25
                      00146         #DEFINE     INCTEMPO        0x26
                      00147                                     ;VARIAVEIS DAS ROTINAS LCD
                      00148         #DEFINE     TMPLCDREGISTER  0x27        
                      00149         #DEFINE     TESTE_LINHA     0x28                
                      00150         #DEFINE     VAR1            0X29
                      00151         #DEFINE     VAR2            0x2A
                      00152         #DEFINE     DADO_LCD        0X37
                      00153         #DEFINE     SELECAO         0X3A
                      00154                                     ;VARIAVEIS PARA FLAGS
                      00155         #DEFINE     FLAG            0x2D
                      00156         #DEFINE     FLAG01          0X45
                      00157         #DEFINE     FLAG02          0X4A
                      00158         #DEFINE     CONT            0x2E                
                      00159                                     ;VARIAVEIS PARA EUSART
                      00160         #DEFINE     DATAR           0X2F
                      00161         #DEFINE     DADO            0X30
                      00162                                     ;VARIAVEIS PARA SENSORES ANALOGICOS
                      00163         #DEFINE     UMIDADE         0X31
                      00164         #DEFINE     LUMINOSIDADE    0X32
                      00165         #DEFINE     TEMPERATURA     0X33
                      00166         #DEFINE     TEMP_IDEIAL_MAX 0X34
                      00167         #DEFINE     TEMP_IDEIAL_MIN 0X47
                      00168         #DEFINE     UMID_IDEIAL_MAX 0X35
                      00169         #DEFINE     UMID_IDEIAL_MIN 0X48
                      00170         #DEFINE     LUMI_IDEIAL_MAX 0X36
                      00171         #DEFINE     LUMI_IDEIAL_MIN 0X49
                      00172         #DEFINE     TESTE           0X38
                      00173         #DEFINE     RESULTADO       0X39
                      00174         #DEFINE     CONTADOR_SENSOR 0X3B
                      00175         #DEFINE     MAX             0x2B
                      00176         #DEFINE     MIN             0x2C
                      00177         #DEFINE     VALOR           0x41
                      00178         #DEFINE     DIVI            0X3C
                      00179         #DEFINE     RESULTADO_DIVI  0X3D
                      00180         #DEFINE     TEMPERATURA_L   0X3E
                      00181         #DEFINE     LUMINOSIDADE_L  0X3F
                      00182         #DEFINE     UMIDADE_L       0X40
MPASM 5.87                   VAI DAR BOM.ASM   12-15-2020  2:16:19         PAGE  5


LOC  OBJECT CODE     LINE SOURCE TEXT
  VALUE

                      00183         ;VARIAVEIS PARA TRANSFORMACAO DE BINARIO EM ASCCI
                      00184         #DEFINE     VALOR_B         0X42
                      00185         #DEFINE     UNIDADE         0X43
                      00186         #DEFINE     DEZENA          0X44
                      00187         #DEFINE     SELECAO_E       0X46
                      00188         #DEFINE     BA              0X50
                      00189         #DEFINE     DUTY_CYCLE      0X51
                      00190         #DEFINE     PWM_MOTOR       0X52
                      00191         #DEFINE     PWM_P           0X53
                      00192         #DEFINE     DADO_EPROM      0X54
                      00193         #DEFINE     POSICAO_EPROM   0X55
                      00194         #DEFINE     DIAS            0X56
                      00195 
                      00196 
                      00197 ;
                      00198 ;*******************************************************************************
                      00199 ;                            FLAGS EM GERAL
                      00200 ;*******************************************************************************
                      00201         #DEFINE     SET_TEMPO   FLAG,0
                      00202         #DEFINE     REQ_FLAG    FLAG,1
                      00203         #DEFINE     BAIXO       FLAG,2
                      00204         #DEFINE     CIMA        FLAG,3
                      00205         #DEFINE     ENTER       FLAG,4
                      00206         #DEFINE     RESULT_OK   FLAG,5
                      00207         #DEFINE     RESULT_MAIS FLAG,6
                      00208         #DEFINE     RESULT_MENO FLAG,7
                      00209         #DEFINE     MENU        FLAG01,0
                      00210         #DEFINE     ENTRA       FLAG01,1
                      00211         #DEFINE     TERMINOU_L  FLAG01,2
                      00212         #DEFINE     ENTRA_1     FLAG01,3 
                      00213         #DEFINE     DESLIGA_M   FLAG01,4
                      00214         #DEFINE     BOT_ALTO    FLAG01,5
                      00215         #DEFINE     VENTILADOR  FLAG01,6
                      00216         #DEFINE     LEDS        FLAG01,7
                      00217         #DEFINE     MOTOR_T     FLAG02,0
                      00218         #DEFINE     DEFINIDO    FLAG02,1
                      00219         #DEFINE     TEMP_DIVI   FLAG02,2
                      00220         #DEFINE     PLANTA_I_S  FLAG02,3
                      00221         #DEFINE     ENTRA_2     FLAG02,4
                      00222         #DEFINE     ENTRA_3     FLAG02,5
                      00223         #DEFINE     TRAVA_MOTOR FLAG02,6
                      00224 ;*******************************************************************************
                      00225 ; Reset Vector
                      00226 ;*******************************************************************************
                      00227 
                      00228 RES_VECT  CODE    0x0000            ; processor reset vector
                      00229   
000000 EF?? F???      00230           GOTO    START             ; go to beginning of program
                      00231 
                      00232 ;*******************************************************************************
                      00233 ;                               INTERRUPÇÕES
                      00234 ;----------------------------------PIC18's--------------------------------------
                      00235                                     ;INTERRUPÇOES DE ALTO NIVEL
MPASM 5.87                   VAI DAR BOM.ASM   12-15-2020  2:16:19         PAGE  6


LOC  OBJECT CODE     LINE SOURCE TEXT
  VALUE

                      00236 ISRHV       CODE    0x0008
000008 EF?? F???      00237             GOTO    HIGH_ISR
                      00238                                             ;INTERRUPÇOES DE BAIXO NIVEL
                      00239 ISRLV       CODE    0x0018
000018 EF?? F???      00240             GOTO    LOW_ISR
                      00241 
                      00242 ISRH     CODE                               ;INTERRUPÇOES DE ALTO NIVEL
000000                00243 HIGH_ISR
                      00244          
000000 BA9E           00245             BTFSC       PIR1,RCIF           ;TESTA SE CHEGOU ALGUMA COISA EM RX
000002 EC?? F???      00246             CALL        TRATA_RX            ;SE SIM CHAMA TRATA RX
000006 BC9E           00247             BTFSC       PIR1,ADIF           ;TESTA SE CHEGOU ALGUMA COISA EM RX
000008 EC?? F???      00248             CALL        LIBERA_S            ;SE SIM CHAMA TRATA RX
                      00249             
00000C BC4A           00250             BTFSC       TRAVA_MOTOR
00000E EF?? F???      00251             GOTO        DESLIGA_
000012 B2F2           00252             BTFSC       INTCON,INT0IF
000014 EC?? F???      00253             CALL        SOBRE_CORRENTE
000018                00254 DESLIGA_        
000018 B29E           00255             BTFSC       PIR1,TMR2IF
00001A EC?? F???      00256             CALL        VERIFICA_MOTOR      
00001E 92F2           00257             BCF         INTCON,INT0IF
000020 9C9E           00258             BCF         PIR1,ADIF
000022 929E           00259             BCF         PIR1,TMR2IF
000024 9C9E           00260             BCF         PIR1,ADIF
000026                00261 EXIT
000026 0011           00262             RETFIE  FAST                    ;VOLTA PARA A PROGRAMAÇÃO
                      00263 
                      00264 LOW_ISRL CODE                               ;INTERRUPÇOES EM BAIXO NIVEL
000000                00265 LOW_ISR         
000000 AE81           00266             BTFSS       PORTB,7             ;TESTA SE O BOTAO BAIXO FOI PRESSIONADO
000002 842D           00267             BSF         BAIXO               ;SE SIM SETA A FLAG BAIXO
000004 AC81           00268             BTFSS       PORTB,6             ;TESTA SE O BOTAO ENTER FOI PRESSIONADO
000006 882D           00269             BSF         ENTER   
000008 AA81           00270             BTFSS       PORTB,5             ;TESTA SE O BOTAO CIMA FOI PRESSIONADO
00000A 862D           00271             BSF         CIMA
00000C A64A           00272             BTFSS       PLANTA_I_S
00000E EF?? F???      00273             GOTO        PULA_MENU
000012 A881           00274             BTFSS       PORTB,4
000014 8045           00275             BSF         MENU
000016                00276 PULA_MENU
000016 B4F2           00277             BTFSC       INTCON,TMR0IF       ;TESTA SE O TIMER 0 ESTOUROU
000018 EC?? F???      00278             CALL        LEITURA_SENSORES
00001C B0F2           00279             BTFSC       INTCON,RBIF         ;TESTA SE ALGUM BOTAO NO PORTB MUDOU DE ESTADO
00001E EC?? F???      00280             CALL        LCD_BOTOES          ;SE SIM CHAMA LCD_BOTOES
000022 90F2           00281             BCF         INTCON,RBIF         ;DESABILITA O ALERME DE MUDANÇA DE ESTADO
000024 94F2           00282             BCF         INTCON,TMR0IF       ;REINICIA O TIMER 0
000026 0010           00283             RETFIE                          ;VOLTA PARA A PROGRAMAÇÃO
                      00284 ;*******************************************************************************
                      00285 ;                          TRATA A ROTINA DE BOTOES DO LCD
                      00286 ;*******************************************************************************
000028                00287 LCD_BOTOES      
000028 EC?? F???      00288             CALL        TELA_LCD            ;CHAMA TELA LCD
MPASM 5.87                   VAI DAR BOM.ASM   12-15-2020  2:16:19         PAGE  7


LOC  OBJECT CODE     LINE SOURCE TEXT
  VALUE

00002C 0012           00289             RETURN
                      00290 ;*******************************************************************************
                      00291 ;                          TRATA A ROTINA DE INTERRUPÇÃO RX
                      00292 ;*******************************************************************************
00002E                00293 TRATA_RX
00002E 0E06           00294            MOVLW        H'06'                                           ;move literal 06h para Work
000030 14AB           00295            ANDWF        RCSTA,W                                         ;W = W and RCSTA
000032 A4D8           00296            BTFSS        STATUS,Z                                        ;Ocorreu algum erro?
000034 EF?? F???      00297            GOTO         RxError                                         ;sim. Desvia para corrigir
                      00298         
                      00299                 
000038 6AE8           00300            CLRF         WREG
00003A 50AE           00301            MOVF         RCREG,W                                         ;não. Copia dado para Work
00003C 6E2F           00302            MOVWF        DATAR                                           ;armazena byte recebido
00003E EC?? F???      00303            CALL         TRATA_DADO
000042                00304 RxError
000042 98AB           00305             bcf         RCSTA,CREN                                      ;limpa recepção contínua
000044 88AB           00306             bsf         RCSTA,CREN
000046 0012           00307             RETURN
                      00308 
000048                00309 LIBERA_S    
000048 8445           00310             BSF         TERMINOU_L
00004A 0012           00311             RETURN
                      00312             
00004C                00313 SOBRE_CORRENTE
00004C 8C4A           00314             BSF         TRAVA_MOTOR
00004E 0E54           00315             MOVLW       "T"
000050 6EAD           00316             MOVWF       TXREG
000052 EC?? F???      00317             CALL        BUFFER
000056 0E52           00318             MOVLW       "R"
000058 6EAD           00319             MOVWF       TXREG
00005A EC?? F???      00320             CALL        BUFFER
00005E 0E41           00321             MOVLW       "A"
000060 6EAD           00322             MOVWF       TXREG
000062 EC?? F???      00323             CALL        BUFFER
000066 0E56           00324             MOVLW       "V"
000068 6EAD           00325             MOVWF       TXREG
00006A EC?? F???      00326             CALL        BUFFER
00006E 0E41           00327             MOVLW       "A"
000070 6EAD           00328             MOVWF       TXREG
000072 EC?? F???      00329             CALL        BUFFER
000076 0E20           00330             MOVLW       " "
000078 6EAD           00331             MOVWF       TXREG
00007A EC?? F???      00332             CALL        BUFFER
00007E 0E44           00333             MOVLW       "D"
000080 6EAD           00334             MOVWF       TXREG
000082 EC?? F???      00335             CALL        BUFFER
000086 0E45           00336             MOVLW       "E"
000088 6EAD           00337             MOVWF       TXREG
00008A EC?? F???      00338             CALL        BUFFER
00008E 0E20           00339             MOVLW       " "
000090 6EAD           00340             MOVWF       TXREG
000092 EC?? F???      00341             CALL        BUFFER
MPASM 5.87                   VAI DAR BOM.ASM   12-15-2020  2:16:19         PAGE  8


LOC  OBJECT CODE     LINE SOURCE TEXT
  VALUE

000096 0E53           00342             MOVLW       "S"
000098 6EAD           00343             MOVWF       TXREG
00009A EC?? F???      00344             CALL        BUFFER
00009E 0E45           00345             MOVLW       "E"
0000A0 6EAD           00346             MOVWF       TXREG
0000A2 EC?? F???      00347             CALL        BUFFER
0000A6 0E47           00348             MOVLW       "G"
0000A8 6EAD           00349             MOVWF       TXREG
0000AA EC?? F???      00350             CALL        BUFFER
0000AE 0E55           00351             MOVLW       "U"
0000B0 6EAD           00352             MOVWF       TXREG
0000B2 EC?? F???      00353             CALL        BUFFER
0000B6 0E52           00354             MOVLW       "R"
0000B8 6EAD           00355             MOVWF       TXREG
0000BA EC?? F???      00356             CALL        BUFFER
0000BE 0E41           00357             MOVLW       "A"
0000C0 6EAD           00358             MOVWF       TXREG
0000C2 EC?? F???      00359             CALL        BUFFER
0000C6 0E4E           00360             MOVLW       "N"
0000C8 6EAD           00361             MOVWF       TXREG
0000CA EC?? F???      00362             CALL        BUFFER
0000CE 0E43           00363             MOVLW       "C"
0000D0 6EAD           00364             MOVWF       TXREG
0000D2 EC?? F???      00365             CALL        BUFFER
0000D6 0E41           00366             MOVLW       "A"
0000D8 6EAD           00367             MOVWF       TXREG
0000DA EC?? F???      00368             CALL        BUFFER
0000DE 0E20           00369             MOVLW       " "
0000E0 6EAD           00370             MOVWF       TXREG
0000E2 EC?? F???      00371             CALL        BUFFER
0000E6 0E41           00372             MOVLW       "A"
0000E8 6EAD           00373             MOVWF       TXREG
0000EA EC?? F???      00374             CALL        BUFFER
0000EE 0E43           00375             MOVLW       "C"
0000F0 6EAD           00376             MOVWF       TXREG
0000F2 EC?? F???      00377             CALL        BUFFER
0000F6 0E49           00378             MOVLW       "I"
0000F8 6EAD           00379             MOVWF       TXREG
0000FA EC?? F???      00380             CALL        BUFFER
0000FE 0E4F           00381             MOVLW       "O"
000100 6EAD           00382             MOVWF       TXREG
000102 EC?? F???      00383             CALL        BUFFER
000106 0E4E           00384             MOVLW       "N"
000108 6EAD           00385             MOVWF       TXREG
00010A EC?? F???      00386             CALL        BUFFER
00010E 0E41           00387             MOVLW       "A"
000110 6EAD           00388             MOVWF       TXREG
000112 EC?? F???      00389             CALL        BUFFER
000116 0E44           00390             MOVLW       "D"
000118 6EAD           00391             MOVWF       TXREG
00011A EC?? F???      00392             CALL        BUFFER
00011E 0E41           00393             MOVLW       "A"
000120 6EAD           00394             MOVWF       TXREG
MPASM 5.87                   VAI DAR BOM.ASM   12-15-2020  2:16:19         PAGE  9


LOC  OBJECT CODE     LINE SOURCE TEXT
  VALUE

000122 EC?? F???      00395             CALL        BUFFER
000126 0E0D           00396             MOVLW       .13
000128 6EAD           00397              MOVWF      TXREG
00012A EC?? F???      00398             CALL        BUFFER
00012E EC?? F???      00399             CALL        TEXTO_ERRO_MOTOR
000132 0012           00400             RETURN
000134                00401 TEXTO_ERRO_MOTOR
000134 EC?? F???      00402             CALL    LCDCLEAR
000138 0E80           00403             MOVLW   0X80
00013A EC?? F???      00404             CALL    LCDLOCATE
00013E EC?? F???      00405             CALL    LS
000142 EC?? F???      00406             CALL    LO
000146 EC?? F???      00407             CALL    LB
00014A EC?? F???      00408             CALL    LR
00014E EC?? F???      00409             CALL    LE
000152 EC?? F???      00410             CALL    ESPACO
000156 EC?? F???      00411             CALL    LC
00015A EC?? F???      00412             CALL    LO
00015E EC?? F???      00413             CALL    LR
000162 EC?? F???      00414             CALL    LR
000166 EC?? F???      00415             CALL    LE
00016A EC?? F???      00416             CALL    LN
00016E EC?? F???      00417             CALL    LT
000172 EC?? F???      00418             CALL    LE
000176 0EC3           00419             MOVLW   0XC3
000178 EC?? F???      00420             CALL    LCDLOCATE
00017C EC?? F???      00421             CALL    LN
000180 EC?? F???      00422             CALL    LO
000184 EC?? F???      00423             CALL    ESPACO
000188 EC?? F???      00424             CALL    LM
00018C EC?? F???      00425             CALL    LO
000190 EC?? F???      00426             CALL    LT
000194 EC?? F???      00427             CALL    LO
000198 EC?? F???      00428             CALL    LR
00019C 0012           00429             RETURN
                      00430             
                      00431             
                      00432             
                      00433 ;*******************************************************************************
                      00434 ;                          TRATA_DADOS DA INTERRUPÇÃO RCIF
                      00435 ;*******************************************************************************
00019E                00436 TRATA_DADO      
                      00437 ;1 ATE 3: SELEÇÃO DE PLANTAS
                      00438 ;4 ATE 6: REQUISIÇÃO DE SENSORES
                      00439 ;7:FALHA NA CONEXÃO COM A REDE
                      00440 ;8ERRO COMUNICAÇÃO COM O BROKER
00019E 0E41           00441             MOVLW       H'41'       ;MOVE VALOR PARA W
0001A0 6E30           00442             MOVWF       DADO        ;MOVE W PARA DADO
0001A2 0E53           00443             MOVLW       "S"
0001A4 6EAD           00444             MOVWF       TXREG
0001A6 EC?? F???      00445             CALL        BUFFER
0001AA 0E4F           00446             MOVLW       "O"
0001AC 6EAD           00447             MOVWF       TXREG
MPASM 5.87                   VAI DAR BOM.ASM   12-15-2020  2:16:19         PAGE 10


LOC  OBJECT CODE     LINE SOURCE TEXT
  VALUE

0001AE EC?? F???      00448             CALL        BUFFER
0001B2 0E4C           00449             MOVLW       "L"
0001B4 6EAD           00450             MOVWF       TXREG
0001B6 EC?? F???      00451             CALL        BUFFER
0001BA 0E49           00452             MOVLW       "I"
0001BC 6EAD           00453             MOVWF       TXREG
0001BE EC?? F???      00454             CALL        BUFFER
0001C2 0E43           00455             MOVLW       "C"
0001C4 6EAD           00456             MOVWF       TXREG
0001C6 EC?? F???      00457             CALL        BUFFER
0001CA 0E49           00458             MOVLW       "I"
0001CC 6EAD           00459             MOVWF       TXREG
0001CE EC?? F???      00460             CALL        BUFFER
0001D2 EC?? F???      00461             CALL        ALFACE
0001D6 0E54           00462             MOVLW       "T"
0001D8 6EAD           00463             MOVWF       TXREG
0001DA EC?? F???      00464             CALL        BUFFER
0001DE 0E41           00465             MOVLW       "A"
0001E0 6EAD           00466             MOVWF       TXREG
0001E2 EC?? F???      00467             CALL        BUFFER
0001E6 0E44           00468             MOVLW       "D"
0001E8 6EAD           00469             MOVWF       TXREG
0001EA EC?? F???      00470             CALL        BUFFER
0001EE 0E4F           00471             MOVLW       "O"
0001F0 6EAD           00472             MOVWF       TXREG
0001F2 EC?? F???      00473             CALL        BUFFER
0001F6 0E3A           00474             MOVLW       ":"
0001F8 6EAD           00475             MOVWF       TXREG
0001FA EC?? F???      00476             CALL        BUFFER
                      00477 
0001FE 502F           00478             MOVF        DATAR,W     ;MOVE O VALOR DO DADO RECEBIDO EM RX PARA W
000200 6EAD           00479             MOVWF       TXREG       ;MOVE PARA TXREG
000202 EC?? F???      00480             CALL        BUFFER
000206 0E0D           00481             MOVLW       .13                 ;MOVE  PARA W
000208 6EAD           00482             MOVWF       TXREG       ;MOVE PARA TXREG
00020A EC?? F???      00483             CALL        BUFFER
00020E 822D           00484             BSF         REQ_FLAG    ;SETA A FLAG REQUISIÇÃO DE DADO SENSORES
                      00485             
000210 502F           00486             MOVF        DATAR,W     ;MOVE O VALOR DO DADO RECEBIDO EM RX PARA W
000212 1830           00487             XORWF       DADO,0      ;COMPARAÇÃO ENTRE O DADO RECEBIDO EM RX COM DADO
000214 B4D8           00488             BTFSC       STATUS,Z    ;SE OS DADOS FOREM DIFERENTES PULE 
000216 EC?? F???      00489             CALL        ALFACE_SE ;SE IGUAIS OUVE UMA SOLICITAÇÃO PARA ALFACE
                      00490                 
00021A 2A30           00491             INCF        DADO        ;INCREMENTA O DADO 
00021C 502F           00492             MOVF        DATAR,W     ;MOVE O VALOR DO DADO RECEBIDO EM RX PARA W
00021E 1830           00493             XORWF       DADO,0      ;COMPARAÇÃO ENTRE O DADO RECEBIDO EM RX COM DADO
000220 B4D8           00494             BTFSC       STATUS,Z    ;SE OS DADOS FOREM DIFERENTES PULE 
000222 EC?? F???      00495             CALL        CEBOLINHA_SE   ;SE IGUAIS OUVE UMA SOLICITAÇÃO PARA CEBOLINHA
                      00496                 
000226 2A30           00497             INCF        DADO        ;INCREMENTA O DADO 
000228 502F           00498             MOVF        DATAR,W     ;MOVE O VALOR DO DADO RECEBIDO EM RX PARA W
00022A 1830           00499             XORWF       DADO,0      ;COMPARAÇÃO ENTRE O DADO RECEBIDO EM RX COM DADO
00022C B4D8           00500             BTFSC       STATUS,Z    ;SE OS DADOS FOREM DIFERENTES PULE 
MPASM 5.87                   VAI DAR BOM.ASM   12-15-2020  2:16:19         PAGE 11


LOC  OBJECT CODE     LINE SOURCE TEXT
  VALUE

00022E EC?? F???      00501             CALL        SALSINHA_SE   ;SE IGUAIS OUVE UMA SOLICITAÇÃO PARA SALSINHA
                      00502                 
000232 2A30           00503             INCF        DADO        ;INCREMENTA O DADO 
000234 502F           00504             MOVF        DATAR,W     ;MOVE O VALOR DO DADO RECEBIDO EM RX PARA W
000236 1830           00505             XORWF       DADO,0      ;COMPARAÇÃO ENTRE O DADO RECEBIDO EM RX COM DADO
000238 B4D8           00506             BTFSC       STATUS,Z    ;SE OS DADOS FOREM DIFERENTES PULE 
00023A EC?? F???      00507             CALL        REQ_U       ;SE IGUAIS OUVE UMA SOLICITAÇÃO PARA O SENSOR DE UMIDADE
                      00508                 
                      00509                 
00023E 2A30           00510             INCF        DADO        ;INCREMENTA O DADO 
000240 502F           00511             MOVF        DATAR,W     ;MOVE O VALOR DO DADO RECEBIDO EM RX PARA W
000242 1830           00512             XORWF       DADO,0      ;COMPARAÇÃO ENTRE O DADO RECEBIDO EM RX COM DADO
000244 B4D8           00513             BTFSC       STATUS,Z    ;SE OS DADOS FOREM DIFERENTES PULE 
000246 EC?? F???      00514             CALL        REQ_T       ;SE IGUAIS OUVE UMA SOLICITAÇÃO PARA O SENSOR DE TEMPERATURA
                      00515                 
00024A 2A30           00516             INCF        DADO        ;INCREMENTA O DADO 
00024C 502F           00517             MOVF        DATAR,W     ;MOVE O VALOR DO DADO RECEBIDO EM RX PARA W
00024E 1830           00518             XORWF       DADO,0      ;COMPARAÇÃO ENTRE O DADO RECEBIDO EM RX COM DADO
000250 B4D8           00519             BTFSC       STATUS,Z    ;SE OS DADOS FOREM DIFERENTES PULE 
000252 EC?? F???      00520             CALL        REQ_L       ;SE IGUAIS OUVE UMA SOLICITAÇÃO PARA O SENSOR DE LUMINOSIDADE
                      00521                 
000256 2A30           00522             INCF        DADO        ;INCREMENTA O DADO 
000258 502F           00523             MOVF        DATAR,W     ;MOVE O VALOR DO DADO RECEBIDO EM RX PARA W
00025A 1830           00524             XORWF       DADO,0      ;COMPARAÇÃO ENTRE O DADO RECEBIDO EM RX COM DADO
00025C B4D8           00525             BTFSC       STATUS,Z    ;SE OS DADOS FOREM DIFERENTES PULE 
00025E EC?? F???      00526             CALL        ERRO_REDE   ;SE IGUAIS OUVE UM AVISO DE ERRO NAS CONFIGURAÇÕES DE REDE
                      00527                 
000262 2A30           00528             INCF        DADO        ;INCREMENTA O DADO 
000264 502F           00529             MOVF        DATAR,W     ;MOVE O VALOR DO DADO RECEBIDO EM RX PARA W
000266 1830           00530             XORWF       DADO,0      ;COMPARAÇÃO ENTRE O DADO RECEBIDO EM RX COM DADO
000268 B4D8           00531             BTFSC       STATUS,Z    ;SE OS DADOS FOREM DIFERENTES PULE 
00026A EC?? F???      00532             CALL        ERRO_BROKER ;SE IGUAIS OUVE UM AVISO DE ERRO NAS CONFIGURAÇÕES DE BROKER
                      00533                 
                      00534                 
00026E 922D           00535             BCF REQ_FLAG
000270 6A30           00536             CLRF        DADO
000272 0012           00537             RETURN
                      00538 ;*******************************************************************************
                      00539 ;                               TRATA ERROS
                      00540 ;*******************************************************************************
000274                00541 ERRO_REDE       
000274 EC?? F???      00542             CALL        LCDCLEAR
000278 0E80           00543             MOVLW       0X80
00027A EC?? F???      00544             CALL        LCDLOCATE
00027E EC?? F???      00545             CALL        LE
000282 EC?? F???      00546             CALL        LR
000286 EC?? F???      00547             CALL        LR
00028A EC?? F???      00548             CALL        LO
00028E EC?? F???      00549             CALL        ESPACO
000292 EC?? F???      00550             CALL        LR
000296 EC?? F???      00551             CALL        LE
00029A EC?? F???      00552             CALL        LD
00029E EC?? F???      00553             CALL        LE
MPASM 5.87                   VAI DAR BOM.ASM   12-15-2020  2:16:19         PAGE 12


LOC  OBJECT CODE     LINE SOURCE TEXT
  VALUE

0002A2 0012           00554             RETURN
                      00555                 
                      00556                 
0002A4                00557 ERRO_BROKER     
0002A4 EC?? F???      00558             CALL        LCDCLEAR
0002A8 0E80           00559             MOVLW       0X80
0002AA EC?? F???      00560             CALL        LCDLOCATE
0002AE EC?? F???      00561             CALL        LE
0002B2 EC?? F???      00562             CALL        LR
0002B6 EC?? F???      00563             CALL        LR
0002BA EC?? F???      00564             CALL        LO
0002BE EC?? F???      00565             CALL        ESPACO
0002C2 EC?? F???      00566             CALL        LB
0002C6 EC?? F???      00567             CALL        LR
0002CA EC?? F???      00568             CALL        LO
0002CE EC?? F???      00569             CALL        LK
0002D2 EC?? F???      00570             CALL        LE
0002D6 EC?? F???      00571             CALL        LR
0002DA 0012           00572             RETURN
0002DC                00573 CEBOLINHA_SE
0002DC EC?? F???      00574             CALL        TEXTO_PLANTA
0002E0 0E43           00575             MOVLW       "C"
0002E2 6EAD           00576             MOVWF       TXREG
0002E4 EC?? F???      00577             CALL        BUFFER
0002E8 0E45           00578             MOVLW       "E"
0002EA 6EAD           00579             MOVWF       TXREG
0002EC EC?? F???      00580             CALL        BUFFER
0002F0 0E42           00581             MOVLW       "B"
0002F2 6EAD           00582             MOVWF       TXREG
0002F4 EC?? F???      00583             CALL        BUFFER
0002F8 0E4F           00584             MOVLW       "O"
0002FA 6EAD           00585             MOVWF       TXREG
0002FC EC?? F???      00586             CALL        BUFFER
000300 0E4C           00587             MOVLW       "L"
000302 6EAD           00588             MOVWF       TXREG
000304 EC?? F???      00589             CALL        BUFFER
000308 0E49           00590             MOVLW       "I"
00030A 6EAD           00591             MOVWF       TXREG
00030C EC?? F???      00592             CALL        BUFFER
000310 EC?? F???      00593             CALL        ALFACE
000314 0E4E           00594             MOVLW       "N"
000316 6EAD           00595             MOVWF       TXREG
000318 EC?? F???      00596             CALL        BUFFER
00031C 0E48           00597             MOVLW       "H"
00031E 6EAD           00598             MOVWF       TXREG
000320 EC?? F???      00599             CALL        BUFFER
000324 0E41           00600             MOVLW       "A"
000326 6EAD           00601             MOVWF       TXREG
000328 EC?? F???      00602             CALL        BUFFER
00032C 0E0D           00603             MOVLW       .13                 ;MOVE  PARA W
00032E 6EAD           00604             MOVWF       TXREG       ;MOVE PARA TXREG
000330 EC?? F???      00605             CALL        BUFFER
000334 EC?? F???      00606             CALL        CEBOLINHA
MPASM 5.87                   VAI DAR BOM.ASM   12-15-2020  2:16:19         PAGE 13


LOC  OBJECT CODE     LINE SOURCE TEXT
  VALUE

000338 0012           00607             RETURN
00033A                00608 SALSINHA_SE
00033A EC?? F???      00609             CALL        TEXTO_PLANTA
00033E 6EAD           00610             MOVWF       TXREG
000340 EC?? F???      00611             CALL        BUFFER
000344 0E53           00612             MOVLW       "S"
000346 6EAD           00613             MOVWF       TXREG
000348 EC?? F???      00614             CALL        BUFFER
00034C 0E41           00615             MOVLW       "A"
00034E 6EAD           00616             MOVWF       TXREG
000350 EC?? F???      00617             CALL        BUFFER
000354 0E4C           00618             MOVLW       "L"
000356 6EAD           00619             MOVWF       TXREG
000358 EC?? F???      00620             CALL        BUFFER
00035C 0E53           00621             MOVLW       "S"
00035E 6EAD           00622             MOVWF       TXREG
000360 EC?? F???      00623             CALL        BUFFER
000364 0E49           00624             MOVLW       "I"
000366 6EAD           00625             MOVWF       TXREG
000368 EC?? F???      00626             CALL        BUFFER
00036C 0E4E           00627             MOVLW       "N"
00036E 6EAD           00628             MOVWF       TXREG
000370 EC?? F???      00629             CALL        BUFFER
000374 0E48           00630             MOVLW       "H"
000376 6EAD           00631             MOVWF       TXREG
000378 EC?? F???      00632             CALL        BUFFER
00037C 0E41           00633             MOVLW       "A"
00037E 6EAD           00634             MOVWF       TXREG
000380 EC?? F???      00635             CALL        BUFFER
000384 0E0D           00636             MOVLW   .13             ;MOVE  PARA W
000386 6EAD           00637             MOVWF   TXREG           ;MOVE PARA TXREG
000388 EC?? F???      00638             CALL    BUFFER
00038C EC?? F???      00639             CALL        SALSINHA
000390 0012           00640             RETURN
000392                00641 ALFACE_SE
000392 EC?? F???      00642             CALL        TEXTO_PLANTA
000396 6EAD           00643             MOVWF       TXREG
000398 EC?? F???      00644             CALL        BUFFER
00039C 0E41           00645             MOVLW       "A"
00039E 6EAD           00646             MOVWF       TXREG
0003A0 EC?? F???      00647             CALL        BUFFER
0003A4 0E4C           00648             MOVLW       "L"
0003A6 6EAD           00649             MOVWF       TXREG
0003A8 EC?? F???      00650             CALL        BUFFER
0003AC 0E46           00651             MOVLW       "F"
0003AE 6EAD           00652             MOVWF       TXREG
0003B0 EC?? F???      00653             CALL        BUFFER
0003B4 0E41           00654             MOVLW       "A"
0003B6 6EAD           00655             MOVWF       TXREG
0003B8 EC?? F???      00656             CALL        BUFFER
0003BC 0E43           00657             MOVLW       "C"
0003BE 6EAD           00658             MOVWF       TXREG
0003C0 EC?? F???      00659             CALL        BUFFER
MPASM 5.87                   VAI DAR BOM.ASM   12-15-2020  2:16:19         PAGE 14


LOC  OBJECT CODE     LINE SOURCE TEXT
  VALUE

0003C4 0E45           00660             MOVLW       "E"
0003C6 6EAD           00661             MOVWF       TXREG
0003C8 EC?? F???      00662             CALL        BUFFER
0003CC 0E0D           00663             MOVLW       .13                 ;MOVE  PARA W
0003CE 6EAD           00664             MOVWF       TXREG       ;MOVE PARA TXREG
0003D0 EC?? F???      00665             CALL        BUFFER
0003D4 EC?? F???      00666             CALL        ALFACE
0003D8 0012           00667             RETURN
                      00668            
0003DA                00669 TEXTO_PLANTA
0003DA 0E50           00670             MOVLW       "P"
0003DC 6EAD           00671             MOVWF       TXREG
0003DE EC?? F???      00672             CALL        BUFFER
0003E2 0E4C           00673             MOVLW       "L"
0003E4 6EAD           00674             MOVWF       TXREG
0003E6 EC?? F???      00675             CALL        BUFFER
0003EA 0E41           00676             MOVLW       "A"
0003EC 6EAD           00677             MOVWF       TXREG
0003EE EC?? F???      00678             CALL        BUFFER
0003F2 0E4E           00679             MOVLW       "N"
0003F4 6EAD           00680             MOVWF       TXREG
0003F6 EC?? F???      00681             CALL        BUFFER
0003FA 0E54           00682             MOVLW       "T"
0003FC 6EAD           00683             MOVWF       TXREG
0003FE EC?? F???      00684             CALL        BUFFER
000402 0E41           00685             MOVLW       "A"
000404 6EAD           00686             MOVWF       TXREG
000406 EC?? F???      00687             CALL        BUFFER
00040A 0E20           00688             MOVLW       " "
00040C 6EAD           00689             MOVWF       TXREG
00040E EC?? F???      00690             CALL        BUFFER
000412 0E53           00691             MOVLW       "S"
000414 6EAD           00692             MOVWF       TXREG
000416 EC?? F???      00693             CALL        BUFFER
00041A 0E45           00694             MOVLW       "E"
00041C 6EAD           00695             MOVWF       TXREG
00041E EC?? F???      00696             CALL        BUFFER
000422 0E4C           00697             MOVLW       "L"
000424 6EAD           00698             MOVWF       TXREG
000426 EC?? F???      00699             CALL        BUFFER
00042A 0E45           00700             MOVLW       "E"
00042C 6EAD           00701             MOVWF       TXREG
00042E EC?? F???      00702             CALL        BUFFER
000432 0E43           00703             MOVLW       "C"
000434 6EAD           00704             MOVWF       TXREG
000436 EC?? F???      00705             CALL        BUFFER
00043A 0E49           00706             MOVLW       "I"
00043C 6EAD           00707             MOVWF       TXREG
00043E EC?? F???      00708             CALL        BUFFER
000442 0E4F           00709             MOVLW       "O"
000444 6EAD           00710             MOVWF       TXREG
000446 EC?? F???      00711             CALL        BUFFER
00044A 0E4E           00712             MOVLW       "N"
MPASM 5.87                   VAI DAR BOM.ASM   12-15-2020  2:16:19         PAGE 15


LOC  OBJECT CODE     LINE SOURCE TEXT
  VALUE

00044C 6EAD           00713             MOVWF       TXREG
00044E EC?? F???      00714             CALL        BUFFER
000452 0E41           00715             MOVLW       "A"
000454 6EAD           00716             MOVWF       TXREG
000456 EC?? F???      00717             CALL        BUFFER
00045A 0E44           00718             MOVLW       "D"
00045C 6EAD           00719             MOVWF       TXREG
00045E EC?? F???      00720             CALL        BUFFER
000462 0E41           00721             MOVLW       "A"
000464 6EAD           00722             MOVWF       TXREG
000466 EC?? F???      00723             CALL        BUFFER
00046A 0E3A           00724             MOVLW       ":"
00046C 6EAD           00725             MOVWF       TXREG
00046E EC?? F???      00726             CALL        BUFFER
000472 0E20           00727             MOVLW       " "
000474 0012           00728             RETURN
                      00729             
                      00730         
                      00731             
                      00732 ;*******************************************************************************
                      00733 ;                               MAIN PROGRAM
                      00734 ;*******************************************************************************
                      00735 MAIN_PROG CODE                          
000000                00736 START
000000 6AD0           00737         CLRF            RCON
                      00738         #DEFINE         BT_ENTER    PORTB,6     ;Define como BOTAO_MENU o bit 6 do PORTB.
                      00739         #DEFINE         BT_C        PORTB,5     ;Define como BOTAO_INC o bit 5 do PORTB.
                      00740         #DEFINE         BT_B        PORTB,4     ;Define como BOTAO_DEC o bit 4 do PORTB.
                      00741         #DEFINE         BT_E        PORTB,3     ;Define como BOTAO_ENTER o bit 3 do PORTB.
                      00742         #DEFINE         BT_D        PORTB,2;Define como BOTAO_ENTER o bit 3 do PORTB.
                      00743 
                      00744     ;******************************************************************************
                      00745     ;                           DEFINICAO DAS SAIDAS                          *
                      00746     ;******************************************************************************
                      00747         #DEFINE         LCD_RS      PORTD,2     ;DEFINE LCD_RS COMO 
                      00748         #DEFINE         LCD_E       PORTD,3     ;DEFINE LCD_E COMO
                      00749         #DEFINE         LCD_DB4     PORTD,4     ;DEFINE LCD_DB4 COMO 
                      00750         #DEFINE         LCD_DB5     PORTD,5     ;DEFINE LCD_DB5 COMO 
                      00751         #DEFINE         LCD_DB6     PORTD,6     ;DEFINE LCD_DB6 COMO 
                      00752         #DEFINE         LCD_DB7     PORTD,7     ;DEFINE LCD_DB7 COMO 
                      00753         #DEFINE         LED_R       PORTE,0     ;DEFINE LED VERMELHO COMO
                      00754         #DEFINE         LED_G       PORTE,1     ;DEFINE LED VERDE COMO
                      00755         #DEFINE         LED_B       PORTE,2     ;DEFINE LED AZUL COMO
                      00756         #DEFINE         VENTI       PORTE,3
                      00757         #DEFINE         PWM         PORTB,3     ;DEFINE PWM COMO
                      00758         #DEFINE         RELE        PORTD,0
                      00759         
                      00760 ;*******************************************************************************
                      00761 ;                       CONFIGURAÇÃO DA EUSART
                      00762 ;*******************************************************************************
000002 0E81           00763             MOVLW       H'81'   
000004 6EAF           00764             MOVWF       SPBRG           ;Configuração de BAUD RATE
000006 0E26           00765             MOVLW       B'00100110'             
MPASM 5.87                   VAI DAR BOM.ASM   12-15-2020  2:16:19         PAGE 16


LOC  OBJECT CODE     LINE SOURCE TEXT
  VALUE

                      00766                                         
000008 6EAC           00767             MOVWF       TXSTA           ;HABILITA ENVIO DE DADOS
00000A 0E90           00768             MOVLW       B'10010000'             
                      00769                                         
00000C 6EAB           00770             MOVWF       RCSTA
                      00771             
00000E 8AAC           00772             BSF         TXSTA,TXEN
                      00773 ;*******************************************************************************
                      00774 ;                       CONFIGURAÇÃO DAS ENTRADAS ANALOGICAS 
                      00775 ;*******************************************************************************           
000010 0E01           00776             MOVLW       H'01'
000012 6EC2           00777             MOVWF       ADCON0
000014 0E0C           00778             MOVLW       H'0C'
000016 6EC1           00779             MOVWF       ADCON1
000018 0E10           00780             MOVLW       H'10'
00001A 6EC0           00781             MOVWF       ADCON2
                      00782 ;*******************************************************************************
                      00783 ;                       CCPxCON: REGISTRO DE CONTROLE CCPx PADRÃO
                      00784 ;*******************************************************************************
                      00785           
00001C 0EFF           00786             MOVLW       .255
00001E 6ECB           00787             MOVWF       PR2
                      00788             
000020 0E30           00789             MOVLW       B'00110000'
000022 6EBA           00790             MOVWF       CCP2CON
000024 0E80           00791             MOVLW       .128
000026 6E51           00792             MOVWF       DUTY_CYCLE
                      00793             
                      00794             
                      00795             
                      00796             
                      00797             
                      00798             
                      00799             
                      00800 ;*******************************************************************************
                      00801 ;                       CONFIGURAÇÃO DO TIMER 0
                      00802 ;*******************************************************************************
000028 0E87           00803             MOVLW       B'10000111'
00002A 6ED5           00804             MOVWF       T0CON
00002C 0E06           00805             MOVLW       B'00000110'
00002E 6ECA           00806             MOVWF       T2CON
000030 0E00           00807             MOVLW       B'00000000'
000032 6EB1           00808             MOVWF       T3CON
000034 0E00           00809             MOVLW       B'00000000'
000036 6ECD           00810             MOVWF       T1CON
                      00811             
                      00812 ;*******************************************************************************
                      00813 ;                       CONFIGURAÇÃO DOS TRIS
                      00814 ;*******************************************************************************
000038 0EF7           00815             MOVLW       B'11110111'             ;SETA TRISB COMO SAIDA 
00003A 6E93           00816             MOVWF       TRISB
00003C 968A           00817             BCF         LATB,3
00003E 0E00           00818             MOVLW       B'00000000'             ;CONFIGURA OS TRISX 1= ENTRADA 0= SAIDA
MPASM 5.87                   VAI DAR BOM.ASM   12-15-2020  2:16:19         PAGE 17


LOC  OBJECT CODE     LINE SOURCE TEXT
  VALUE

000040 6E95           00819             MOVWF       TRISD
000042 0EFF           00820             MOVLW       B'11111111'
000044 6E92           00821             MOVWF       TRISA
000046 0EF8           00822             MOVLW       B'11111000'
000048 6E96           00823             MOVWF       TRISE
00004A 0E81           00824             MOVLW       B'10000001'
00004C 6E94           00825             MOVWF       TRISC
                      00826             
                      00827             
                      00828 ;*******************************************************************************
                      00829 ;                       CONFIGURAÇÃO DAS INTERRUPÇOES
                      00830 ;*******************************************************************************           
00004E 0EE8           00831             MOVLW       B'11101000'
000050 6EF2           00832             MOVWF       INTCON                          
                      00833                                 
000052 0E80           00834             MOVLW       B'10000000'
000054 6EF1           00835             MOVWF       INTCON2
                      00836                     
000056 6AF0           00837             CLRF        INTCON3
                      00838                                 
000058 8ED0           00839             BSF         RCON,IPEN
                      00840                                 
00005A 0E63           00841             MOVLW       .99
00005C 6E9D           00842             MOVWF       PIE1
                      00843                 
00005E 0E02           00844             MOVLW       B'00000010'
000060 6EA0           00845             MOVWF       PIE2
                      00846                                         
000062 0E62           00847             MOVLW       B'01100010'
000064 6E9F           00848             MOVWF       IPR1
000066 0E00           00849             MOVLW       B'00000000'
000068 6EA2           00850             MOVWF       IPR2
00006A EC?? F???      00851             CALL        INICIALIZA_LCD
                      00852 ;*******************************************************************************
                      00853 ;                       SELEÇÃO DE PLANTA 
                      00854 ;*******************************************************************************        
00006E 0E01           00855             MOVLW        H'01'          ;MOVE 0 PARA W
000070 6E3A           00856             MOVWF       SELECAO
000072 8245           00857             BSF         ENTRA
000074 EC?? F???      00858             CALL        TELA_LCD
000078 EC?? F???      00859             CALL        LEITURA_SENSORES
00007C                00860 TRAVA_
00007C B64A           00861             BTFSC       PLANTA_I_S
00007E EF?? F???      00862             GOTO        LOOP
000082 AA45           00863             BTFSS       BOT_ALTO
000084 EF?? F???      00864             GOTO        TRAVA_
000088 AE81           00865             BTFSS       PORTB,7             ;TESTA SE O BOTAO BAIXO FOI PRESSIONADO
00008A EF?? F???      00866             GOTO        TRAVA_      ;SE SIM SETA A FLAG BAIXO
00008E AC81           00867             BTFSS       PORTB,6             ;TESTA SE O BOTAO ENTER FOI PRESSIONADO
000090 EF?? F???      00868             GOTO        TRAVA_  
000094 AA81           00869             BTFSS       PORTB,5             ;TESTA SE O BOTAO CIMA FOI PRESSIONADO
000096 EF?? F???      00870             GOTO        TRAVA_
00009A A881           00871             BTFSS       PORTB,4
MPASM 5.87                   VAI DAR BOM.ASM   12-15-2020  2:16:19         PAGE 18


LOC  OBJECT CODE     LINE SOURCE TEXT
  VALUE

00009C EF?? F???      00872             GOTO        TRAVA_
0000A0 0EF8           00873             MOVLW       B'11111000'
0000A2 6EF2           00874             MOVWF       INTCON  
0000A4 9A45           00875             BCF         BOT_ALTO
0000A6 EF?? F???      00876             GOTO        TRAVA_
                      00877 ;*******************************************************************************
                      00878 ;                       LOOP
                      00879 ;*******************************************************************************                    
                      00880             
                      00881             
0000AA                00882 LOOP    
0000AA 6A3A           00883             CLRF        SELECAO
0000AC EC?? F???      00884             CALL        TELA_LCD
0000B0 8AF2           00885             BSF         INTCON,5
0000B2 8ED5           00886             BSF         T0CON,7
0000B4                00887 LOOP_TESTE
                      00888             
0000B4 AA45           00889             BTFSS       BOT_ALTO
0000B6 EF?? F???      00890             GOTO        LOOP_TESTE
0000BA AE81           00891             BTFSS       PORTB,7             ;TESTA SE O BOTAO BAIXO FOI PRESSIONADO
0000BC EF?? F???      00892             GOTO        LOOP_TESTE          ;SE SIM SETA A FLAG BAIXO
0000C0 AC81           00893             BTFSS       PORTB,6             ;TESTA SE O BOTAO ENTER FOI PRESSIONADO
0000C2 EF?? F???      00894             GOTO        LOOP_TESTE      
0000C6 AA81           00895             BTFSS       PORTB,5             ;TESTA SE O BOTAO CIMA FOI PRESSIONADO
0000C8 EF?? F???      00896             GOTO        LOOP_TESTE
0000CC A881           00897             BTFSS       PORTB,4
0000CE EF?? F???      00898             GOTO        LOOP_TESTE
0000D2 0EE8           00899             MOVLW       B'11101000'
0000D4 6EF2           00900             MOVWF       INTCON  
0000D6 9A45           00901             BCF         BOT_ALTO
0000D8 EF?? F???      00902             GOTO        LOOP_TESTE
                      00903     
                      00904 ;******************************************************************************
                      00905 ;                               SUBROTINAS
                      00906 ;******************************************************************************
                      00907 ;ESCRITA_EPROM
                      00908 ;           MOVF    DADO_EPROM,W
                      00909 ;           MOVWF   EEDATA
                      00910 ;           MOVF    POSICAO_EPROM
                      00911 ;           MOVWF   EEADR
                      00912 ;           BCF     EECON1, EEPGD ; Point to DATA memory
                      00913 ;           BCF     EECON1, CFGS ; Access EEPROM
                      00914 ;           BSF     EECON1, WREN ; Enable writes
                      00915 ;           BCF     INTCON, GIE ; Disable Interrupts
                      00916 ;           MOVLW   55h ;
                      00917 ;           MOVWF   EECON2 ; Write 55h
                      00918 ;           MOVLW   0AAh ;
                      00919 ;           MOVWF   EECON2 ; Write 0AAh
                      00920 ;           BSF     EECON1, WR ; Set WR bit to begin
                      00921 ;           
                      00922 ;LEITURA_EPROM
                      00923 ;           MOVLW POSICAO_EPROM ;
                      00924 ;           MOVWF EEADR ; Lower bits of Data Memory Address to read
MPASM 5.87                   VAI DAR BOM.ASM   12-15-2020  2:16:19         PAGE 19


LOC  OBJECT CODE     LINE SOURCE TEXT
  VALUE

                      00925 ;           BCF EECON1, EEPGD ; Point to DATA memory
                      00926 ;           BCF EECON1, CFGS ; Access EEPROM
                      00927 ;           BSF EECON1, RD ; EEPROM Read
                      00928 ;           MOVF EEDATA, W ; W = EEDATA
                      00929 ;           
                      00930 
                      00931 ;******************************************************************************
                      00932 ;                       ROTINA LIGA E DESLIGA PWM
                      00933 ;******************************************************************************
                      00934                 ;ESTA ROTINA É CHAMADA PELO ESTOURO DO TIMER 2
                      00935         
0000DC                00936 VERIFICA_MOTOR                      ;ESTA ROTINA É CHAMADA PELO ESTOURO DO TIMER 2
0000DC BC4A           00937             BTFSC   TRAVA_MOTOR
0000DE EC?? F???      00938             CALL    DESLIGA_MOTOR
0000E2 A845           00939             BTFSS   DESLIGA_M       ;TESTA SE A FLAG FOI ACIONADA
0000E4 EC?? F???      00940             CALL    INC_MOTOR       ;SE NÃO  VAI PARA ...
0000E8 B845           00941             BTFSC   DESLIGA_M       ;TESTA SE A FLAG FOI ACIONADA
0000EA EC?? F???      00942             CALL    DEC_MOTOR       ;SE SIM  VAI PARA ...
0000EE 0012           00943             RETURN
                      00944 ;******************************************************************************
                      00945 ;                               ROTINA DO MOTOR
                      00946 ;******************************************************************************  
0000F0                00947 LIGA_MOTOR
0000F0 BC4A           00948             BTFSC   TRAVA_MOTOR
0000F2 EC?? F???      00949             CALL    DESLIGA_MOTOR
0000F6 0E07           00950             MOVLW   B'00000111'
0000F8 6ECA           00951             MOVWF   T2CON
0000FA 0E0F           00952             MOVLW   B'00001111'     ;CONFIGURAÇOES DO CCP2CON
0000FC 6EBA           00953             MOVWF   CCP2CON         ;MOVE AS CONFIG PARA CCP2CON
0000FE 9845           00954             BCF     DESLIGA_M       ;DESABILITA A FLAG 
000100 0012           00955             RETURN
000102                00956 DESLIGA_MOTOR
000102 8845           00957             BSF     DESLIGA_M       ;LIGA A FLAG
000104 0012           00958             RETURN
000106                00959 INC_MOTOR
000106 5051           00960             MOVF    DUTY_CYCLE,W
000108 18BB           00961             XORWF   CCPR2L,0
00010A A4D8           00962             BTFSS   STATUS,Z
00010C 2ABB           00963             INCF    CCPR2L
00010E 0012           00964             RETURN
000110                00965 DEC_MOTOR
                      00966             
000110 0E00           00967             MOVLW   .0
000112 18BB           00968             XORWF   CCPR2L,0
000114 A4D8           00969             BTFSS   STATUS,Z
000116 EF?? F???      00970             GOTO    DEC_M
00011A 0E00           00971             MOVLW   B'00000000'
00011C 6EBA           00972             MOVWF   CCP2CON
00011E 0E06           00973             MOVLW   B'00000110'
000120 6ECA           00974             MOVWF   T2CON
000122 0012           00975             RETURN
000124                00976 DEC_M   
000124 06BB           00977             DECF    CCPR2L
MPASM 5.87                   VAI DAR BOM.ASM   12-15-2020  2:16:19         PAGE 20


LOC  OBJECT CODE     LINE SOURCE TEXT
  VALUE

000126 0012           00978             RETURN
                      00979 
                      00980 ;*******************************************************************************
                      00981 ;                           SELEÇÃO DE PLANTAS
                      00982 ;*******************************************************************************        
000128                00983 ALFACE      
000128 0E04           00984             MOVLW   .4
00012A 6E56           00985             MOVWF   DIAS
                      00986         ;ROTINA PARA SETAR OS VALORES QUE OS SENSORES DEVEM ATUAR
00012C 0E19           00987             MOVLW   .25
00012E 6E34           00988             MOVWF   TEMP_IDEIAL_MAX     ;CONFIGURA VALOR MAXIMO DE ACORDO COM W
000130 0E14           00989             MOVLW   .20
000132 6E47           00990             MOVWF   TEMP_IDEIAL_MIN     ;CONFIGURA VALOR MINIMO DE ACORDO COM W
000134 0E5A           00991             MOVLW   .90
000136 6E35           00992             MOVWF   UMID_IDEIAL_MAX     ;CONFIGURA VALOR MAXIMO DE ACORDO COM W
000138 0E32           00993             MOVLW   .50
00013A 6E48           00994             MOVWF   UMID_IDEIAL_MIN     ;CONFIGURA VALOR MINIMO DE ACORDO COM W
00013C 0E50           00995             MOVLW   .80
00013E 6E36           00996             MOVWF   LUMI_IDEIAL_MAX     ;CONFIGURA VALOR MAXIMO DE ACORDO COM W
000140 0E46           00997             MOVLW   .70
000142 6E49           00998             MOVWF   LUMI_IDEIAL_MIN     ;CONFIGURA VALOR MINIMO DE ACORDO COM W
000144 864A           00999             BSF     PLANTA_I_S
                      01000 ;           MOVLW   .1
                      01001 ;           MOVWF   DADO_EPROM
                      01002 ;           MOVLW   .0
                      01003 ;           MOVWF   POSICAO_EPROM
                      01004 ;           CALL    ESCRITA_EPROM
000146 0012           01005             RETURN
000148                01006 CEBOLINHA
000148 0E03           01007             MOVLW   .3
00014A 6E56           01008             MOVWF   DIAS
                      01009         ;ROTINA PARA SETAR OS VALORES QUE OS SENSORES DEVEM ATUAR
00014C 0EF0           01010             MOVLW   H'F0'
00014E 0E1B           01011             MOVLW   .27
000150 6E34           01012             MOVWF   TEMP_IDEIAL_MAX     ;CONFIGURA VALOR MAXIMO DE ACORDO COM W
000152 0E16           01013             MOVLW   .22
000154 6E47           01014             MOVWF   TEMP_IDEIAL_MIN     ;CONFIGURA VALOR MINIMO DE ACORDO COM W
000156 0E5A           01015             MOVLW   .90
000158 6E35           01016             MOVWF   UMID_IDEIAL_MAX     ;CONFIGURA VALOR MAXIMO DE ACORDO COM W
00015A 0E3C           01017             MOVLW   .60
00015C 6E48           01018             MOVWF   UMID_IDEIAL_MIN     ;CONFIGURA VALOR MINIMO DE ACORDO COM W
00015E 0E50           01019             MOVLW   .80
000160 6E36           01020             MOVWF   LUMI_IDEIAL_MAX     ;CONFIGURA VALOR MAXIMO DE ACORDO COM W
000162 0E3C           01021             MOVLW   .60
000164 6E49           01022             MOVWF   LUMI_IDEIAL_MIN     ;CONFIGURA VALOR MINIMO DE ACORDO COM W
000166 864A           01023             BSF     PLANTA_I_S
                      01024 
000168 0012           01025             RETURN
00016A                01026 SALSINHA
00016A 0E05           01027             MOVLW   .5
00016C 6E56           01028             MOVWF   DIAS
                      01029         ;ROTINA PARA SETAR OS VALORES QUE OS SENSORES DEVEM ATUAR    
00016E 0E19           01030             MOVLW   .25
MPASM 5.87                   VAI DAR BOM.ASM   12-15-2020  2:16:19         PAGE 21


LOC  OBJECT CODE     LINE SOURCE TEXT
  VALUE

000170 6E34           01031             MOVWF   TEMP_IDEIAL_MAX     ;CONFIGURA VALOR MAXIMO DE ACORDO COM W
000172 0E14           01032             MOVLW   .20
000174 6E47           01033             MOVWF   TEMP_IDEIAL_MIN     ;CONFIGURA VALOR MINIMO DE ACORDO COM W
000176 0E64           01034             MOVLW   .100
000178 6E35           01035             MOVWF   UMID_IDEIAL_MAX     ;CONFIGURA VALOR MAXIMO DE ACORDO COM W
00017A 0E5A           01036             MOVLW   .90
00017C 6E48           01037             MOVWF   UMID_IDEIAL_MIN     ;CONFIGURA VALOR MINIMO DE ACORDO COM W
00017E 0E50           01038             MOVLW   .80
000180 6E36           01039             MOVWF   LUMI_IDEIAL_MAX     ;CONFIGURA VALOR MAXIMO DE ACORDO COM W
000182 0E46           01040             MOVLW   .70
000184 6E49           01041             MOVWF   LUMI_IDEIAL_MIN     ;CONFIGURA VALOR MINIMO DE ACORDO COM W
000186 864A           01042             BSF     PLANTA_I_S
000188 0012           01043             RETURN
                      01044 ;*******************************************************************************
                      01045 ;                           TESTE DO TXREG
                      01046 ;*******************************************************************************
00018A                01047 BUFFER
00018A A2AC           01048             BTFSS   TXSTA,TRMT      ;TESTA DE TXREG JA ESTA VAZIO 
00018C EF?? F???      01049             GOTO    BUFFER          ;LOOP
000190 6AAD           01050             CLRF    TXREG           ;LIMPA TXREG
000192 0012           01051             RETURN
                      01052 ;*******************************************************************************
                      01053 ;                           REQUISIÇOES DE LEITURA WEB/LCD
                      01054 ;*******************************************************************************
                      01055 ;                    REQUISIÇOES DE LEITURA NO SENSORE DE UMIDADE
                      01056 
000194                01057 REQ_U                           
000194 5031           01058             MOVF    UMIDADE,W       ;MOVE VALOR DE UMIDADE PARA W
000196 EC?? F???      01059             CALL    TRANFORMA_ASCII
00019A                01060 REQ_WEB_U
00019A 0E20           01061             MOVLW   ' '             ;MOVE U PARA W
00019C 6EAD           01062             MOVWF   TXREG           ;MOVE PARA TXREG
00019E EC?? F???      01063             CALL    BUFFER
0001A2 0E55           01064             MOVLW   'U'             ;MOVE U PARA W
0001A4 6EAD           01065             MOVWF   TXREG           ;MOVE PARA TXREG
0001A6 EC?? F???      01066             CALL    BUFFER
0001AA 0E4D           01067             MOVLW   'M'             ;MOVE M PARA W
0001AC 6EAD           01068             MOVWF   TXREG           ;MOVE PARA TXREG
0001AE EC?? F???      01069             CALL    BUFFER
0001B2 0E49           01070             MOVLW   'I'             ;MOVE I PARA W
0001B4 6EAD           01071             MOVWF   TXREG           ;MOVE PARA TXREG
0001B6 EC?? F???      01072             CALL    BUFFER
0001BA 0E44           01073             MOVLW   'D'             ;MOVE I PARA W
0001BC 6EAD           01074             MOVWF   TXREG           ;MOVE PARA TXREG
0001BE EC?? F???      01075             CALL    BUFFER
0001C2 0E41           01076             MOVLW   'A'             ;MOVE U PARA W
0001C4 6EAD           01077             MOVWF   TXREG           ;MOVE PARA TXREG
0001C6 EC?? F???      01078             CALL    BUFFER
0001CA 0E44           01079             MOVLW   'D'             ;MOVE M PARA W
0001CC 6EAD           01080             MOVWF   TXREG           ;MOVE PARA TXREG
0001CE EC?? F???      01081             CALL    BUFFER
0001D2 0E45           01082             MOVLW   'E'             ;MOVE I PARA W
0001D4 6EAD           01083             MOVWF   TXREG           ;MOVE PARA TXREG
MPASM 5.87                   VAI DAR BOM.ASM   12-15-2020  2:16:19         PAGE 22


LOC  OBJECT CODE     LINE SOURCE TEXT
  VALUE

0001D6 EC?? F???      01084             CALL    BUFFER
0001DA 0E3A           01085             MOVLW   ':'             ;MOVE P PARA W
0001DC 6EAD           01086             MOVWF   TXREG           ;MOVE PARA TXREG
0001DE EC?? F???      01087             CALL    BUFFER
0001E2 0E20           01088             MOVLW   ' '             ;MOVE P PARA W
0001E4 6EAD           01089             MOVWF   TXREG           ;MOVE PARA TXREG
0001E6 EC?? F???      01090             CALL    BUFFER
0001EA 5044           01091             MOVF    DEZENA,W
0001EC 6EAD           01092             MOVWF   TXREG           ;MOVE PARA TXREG
0001EE EC?? F???      01093             CALL    BUFFER
0001F2 5043           01094             MOVF    UNIDADE,W
0001F4 6EAD           01095             MOVWF   TXREG
0001F6 EC?? F???      01096             CALL    BUFFER
0001FA 0E25           01097             MOVLW   '%'             ;MOVE U PARA W
0001FC 6EAD           01098             MOVWF   TXREG           ;MOVE PARA TXREG
0001FE EC?? F???      01099             CALL    BUFFER
000202 0E0D           01100             MOVLW   .13             ;MOVE % PARA W
000204 6EAD           01101             MOVWF   TXREG           ;MOVE PARA TXREG
000206 EC?? F???      01102             CALL    BUFFER
                      01103             
                      01104             
00020A 0012           01105              RETURN
                      01106             
                      01107 ;           REQUISIÇOES DE LEITURA NO SENSORE DE TEMPERATURA
00020C                01108 REQ_T
00020C 5033           01109             MOVF    TEMPERATURA,W
00020E EC?? F???      01110             CALL    TRANFORMA_ASCII
000212                01111 REQ_WEB_T
                      01112            
000212 0E20           01113             MOVLW   ' '             ;MOVE % PARA W
000214 6EAD           01114             MOVWF   TXREG           ;MOVE PARA TXREG
000216 EC?? F???      01115             CALL    BUFFER
00021A 0E54           01116             MOVLW   'T'             ;MOVE T PARA W
00021C 6EAD           01117             MOVWF   TXREG           ;MOVE PARA TXREG
00021E EC?? F???      01118             CALL    BUFFER
000222 0E45           01119             MOVLW   'E'             ;MOVE M PARA W
000224 6EAD           01120             MOVWF   TXREG           ;MOVE PARA TXREG
000226 EC?? F???      01121             CALL    BUFFER
00022A 0E4D           01122             MOVLW   'M'             ;MOVE P PARA W
00022C 6EAD           01123             MOVWF   TXREG           ;MOVE PARA TXREG
00022E EC?? F???      01124             CALL    BUFFER
000232 0E50           01125             MOVLW   'P'             ;MOVE T PARA W
000234 6EAD           01126             MOVWF   TXREG           ;MOVE PARA TXREG
000236 EC?? F???      01127             CALL    BUFFER
00023A 0E45           01128             MOVLW   'E'             ;MOVE M PARA W
00023C 6EAD           01129             MOVWF   TXREG           ;MOVE PARA TXREG
00023E EC?? F???      01130             CALL    BUFFER
000242 0E52           01131             MOVLW   'R'             ;MOVE P PARA W
000244 6EAD           01132             MOVWF   TXREG           ;MOVE PARA TXREG
000246 EC?? F???      01133             CALL    BUFFER
00024A 0E41           01134             MOVLW   'A'             ;MOVE T PARA W
00024C 6EAD           01135             MOVWF   TXREG           ;MOVE PARA TXREG
00024E EC?? F???      01136             CALL    BUFFER
MPASM 5.87                   VAI DAR BOM.ASM   12-15-2020  2:16:19         PAGE 23


LOC  OBJECT CODE     LINE SOURCE TEXT
  VALUE

000252 0E54           01137             MOVLW   'T'             ;MOVE M PARA W
000254 6EAD           01138             MOVWF   TXREG           ;MOVE PARA TXREG
000256 EC?? F???      01139             CALL    BUFFER
00025A 0E55           01140             MOVLW   'U'             ;MOVE P PARA W
00025C 6EAD           01141             MOVWF   TXREG           ;MOVE PARA TXREG
00025E EC?? F???      01142             CALL    BUFFER
000262 0E52           01143             MOVLW   'R'             ;MOVE T PARA W
000264 6EAD           01144             MOVWF   TXREG           ;MOVE PARA TXREG
000266 EC?? F???      01145             CALL    BUFFER
00026A 0E41           01146             MOVLW   'A'             ;MOVE M PARA W
00026C 6EAD           01147             MOVWF   TXREG           ;MOVE PARA TXREG
00026E EC?? F???      01148             CALL    BUFFER
000272 0E3A           01149             MOVLW   ':'             ;MOVE P PARA W
000274 6EAD           01150             MOVWF   TXREG           ;MOVE PARA TXREG
000276 EC?? F???      01151             CALL    BUFFER
00027A 0E20           01152             MOVLW   ' '             ;MOVE P PARA W
00027C 6EAD           01153             MOVWF   TXREG           ;MOVE PARA TXREG
00027E EC?? F???      01154             CALL    BUFFER
000282 5044           01155             MOVF    DEZENA,W
000284 6EAD           01156             MOVWF   TXREG                       ;MOVE PARA TXREG
000286 EC?? F???      01157             CALL    BUFFER
00028A 5043           01158             MOVF    UNIDADE,W
00028C 6EAD           01159             MOVWF   TXREG
00028E EC?? F???      01160             CALL    BUFFER
000292 0EB0           01161             MOVLW   '°'             ;MOVE P PARA W
000294 6EAD           01162             MOVWF   TXREG           ;MOVE PARA TXREG
000296 EC?? F???      01163             CALL    BUFFER
00029A 0E43           01164             MOVLW   'C'             ;MOVE P PARA W
00029C 6EAD           01165             MOVWF   TXREG           ;MOVE PARA TXREG
00029E EC?? F???      01166             CALL    BUFFER
0002A2 0E0D           01167             MOVLW   .13             ;MOVE  PARA W
0002A4 6EAD           01168             MOVWF   TXREG           ;MOVE PARA TXREG
0002A6 EC?? F???      01169             CALL    BUFFER
0002AA 0012           01170             RETURN
                      01171             
                      01172 ;           REQUISIÇOES DE LEITURA NO SENSORE DE LUMINOSIDADE      
0002AC                01173 REQ_L
                      01174             
0002AC 5032           01175             MOVF    LUMINOSIDADE,W          ;MOVE VALOR DE UMIDADE PARA W
0002AE EC?? F???      01176             CALL    TRANFORMA_ASCII
0002B2                01177 REQ_WEB_L
                      01178             
0002B2 0E20           01179             MOVLW   ' '             ;MOVE U PARA W
0002B4 6EAD           01180             MOVWF   TXREG           ;MOVE PARA TXREG
0002B6 EC?? F???      01181             CALL    BUFFER
0002BA 0E4C           01182             MOVLW   'L'             ;MOVE L PARA W
0002BC 6EAD           01183             MOVWF   TXREG           ;MOVE PARA TXREG
0002BE EC?? F???      01184             CALL    BUFFER
0002C2 0E55           01185             MOVLW   'U'             ;MOVE M PARA W
0002C4 6EAD           01186             MOVWF   TXREG           ;MOVE PARA TXREG
0002C6 EC?? F???      01187             CALL    BUFFER
0002CA 0E4D           01188             MOVLW   'M'             ;MOVE I PARA W
0002CC 6EAD           01189             MOVWF   TXREG           ;MOVE PARA TXREG
MPASM 5.87                   VAI DAR BOM.ASM   12-15-2020  2:16:19         PAGE 24


LOC  OBJECT CODE     LINE SOURCE TEXT
  VALUE

0002CE EC?? F???      01190             CALL    BUFFER
0002D2 0E49           01191             MOVLW   'I'             ;MOVE T PARA W
0002D4 6EAD           01192             MOVWF   TXREG           ;MOVE PARA TXREG
0002D6 EC?? F???      01193             CALL    BUFFER
0002DA 0E4E           01194             MOVLW   'N'             ;MOVE M PARA W
0002DC 6EAD           01195             MOVWF   TXREG           ;MOVE PARA TXREG
0002DE EC?? F???      01196             CALL    BUFFER
0002E2 0E4F           01197             MOVLW   'O'             ;MOVE P PARA W
0002E4 6EAD           01198             MOVWF   TXREG           ;MOVE PARA TXREG
0002E6 EC?? F???      01199             CALL    BUFFER
0002EA 0E53           01200             MOVLW   'S'             ;MOVE T PARA W
0002EC 6EAD           01201             MOVWF   TXREG           ;MOVE PARA TXREG
0002EE EC?? F???      01202             CALL    BUFFER
0002F2 0E49           01203             MOVLW   'I'             ;MOVE M PARA W
0002F4 6EAD           01204             MOVWF   TXREG           ;MOVE PARA TXREG
0002F6 EC?? F???      01205             CALL    BUFFER
0002FA 0E44           01206             MOVLW   'D'             ;MOVE P PARA W
0002FC 6EAD           01207             MOVWF   TXREG           ;MOVE PARA TXREG
0002FE EC?? F???      01208             CALL    BUFFER
000302 0E41           01209             MOVLW   'A'             ;MOVE T PARA W
000304 6EAD           01210             MOVWF   TXREG           ;MOVE PARA TXREG
000306 EC?? F???      01211             CALL    BUFFER
00030A 0E44           01212             MOVLW   'D'             ;MOVE M PARA W
00030C 6EAD           01213             MOVWF   TXREG           ;MOVE PARA TXREG
00030E EC?? F???      01214             CALL    BUFFER
000312 0E45           01215             MOVLW   'E'             ;MOVE P PARA W
000314 6EAD           01216             MOVWF   TXREG           ;MOVE PARA TXREG
000316 EC?? F???      01217             CALL    BUFFER
00031A 0E3A           01218             MOVLW   ':'             ;MOVE P PARA W
00031C 6EAD           01219             MOVWF   TXREG           ;MOVE PARA TXREG
00031E EC?? F???      01220             CALL    BUFFER
000322 0E20           01221             MOVLW   ' '             ;MOVE P PARA W
000324 6EAD           01222             MOVWF   TXREG           ;MOVE PARA TXREG
000326 EC?? F???      01223             CALL    BUFFER
00032A 5044           01224             MOVF    DEZENA,W
00032C 6EAD           01225             MOVWF   TXREG                       ;MOVE PARA TXREG
00032E EC?? F???      01226             CALL    BUFFER
000332 5043           01227             MOVF    UNIDADE,W
000334 6EAD           01228             MOVWF   TXREG
000336 EC?? F???      01229             CALL    BUFFER
00033A 0E25           01230             MOVLW   '%'             ;MOVE U PARA W
00033C 6EAD           01231             MOVWF   TXREG           ;MOVE PARA TXREG
00033E EC?? F???      01232             CALL    BUFFER
000342 0E0D           01233             MOVLW   .13             ;MOVE % PARA W
000344 6EAD           01234             MOVWF   TXREG           ;MOVE PARA TXREG
000346 EC?? F???      01235             CALL    BUFFER
00034A 0012           01236             RETURN
00034C                01237 COLHEITA
00034C 0E20           01238             MOVLW   ' '             ;MOVE U PARA W
00034E 6EAD           01239             MOVWF   TXREG           ;MOVE PARA TXREG
000350 EC?? F???      01240             CALL    BUFFER
000354 0E48           01241             MOVLW   'H'             ;MOVE L PARA W
000356 6EAD           01242             MOVWF   TXREG           ;MOVE PARA TXREG
MPASM 5.87                   VAI DAR BOM.ASM   12-15-2020  2:16:19         PAGE 25


LOC  OBJECT CODE     LINE SOURCE TEXT
  VALUE

000358 EC?? F???      01243             CALL    BUFFER
00035C 0E4F           01244             MOVLW   'O'             ;MOVE M PARA W
00035E 6EAD           01245             MOVWF   TXREG           ;MOVE PARA TXREG
000360 EC?? F???      01246             CALL    BUFFER
000364 0E52           01247             MOVLW   'R'             ;MOVE I PARA W
000366 6EAD           01248             MOVWF   TXREG           ;MOVE PARA TXREG
000368 EC?? F???      01249             CALL    BUFFER
00036C 0E41           01250             MOVLW   'A'             ;MOVE T PARA W
00036E 6EAD           01251             MOVWF   TXREG           ;MOVE PARA TXREG
000370 EC?? F???      01252             CALL    BUFFER
000374 0E20           01253             MOVLW   ' '             ;MOVE M PARA W
000376 6EAD           01254             MOVWF   TXREG           ;MOVE PARA TXREG
000378 EC?? F???      01255             CALL    BUFFER
00037C 0E44           01256             MOVLW   'D'             ;MOVE P PARA W
00037E 6EAD           01257             MOVWF   TXREG           ;MOVE PARA TXREG
000380 EC?? F???      01258             CALL    BUFFER
000384 0E45           01259             MOVLW   'E'             ;MOVE T PARA W
000386 6EAD           01260             MOVWF   TXREG           ;MOVE PARA TXREG
000388 EC?? F???      01261             CALL    BUFFER
00038C 0E20           01262             MOVLW   ' '             ;MOVE M PARA W
00038E 6EAD           01263             MOVWF   TXREG           ;MOVE PARA TXREG
000390 EC?? F???      01264             CALL    BUFFER
000394 0E43           01265             MOVLW   'C'             ;MOVE P PARA W
000396 6EAD           01266             MOVWF   TXREG           ;MOVE PARA TXREG
000398 EC?? F???      01267             CALL    BUFFER
00039C 0E4F           01268             MOVLW   'O'             ;MOVE T PARA W
00039E 6EAD           01269             MOVWF   TXREG           ;MOVE PARA TXREG
0003A0 EC?? F???      01270             CALL    BUFFER
0003A4 0E4C           01271             MOVLW   'L'             ;MOVE M PARA W
0003A6 6EAD           01272             MOVWF   TXREG           ;MOVE PARA TXREG
0003A8 EC?? F???      01273             CALL    BUFFER
0003AC 0E48           01274             MOVLW   'H'             ;MOVE P PARA W
0003AE 6EAD           01275             MOVWF   TXREG           ;MOVE PARA TXREG
0003B0 EC?? F???      01276             CALL    BUFFER
0003B4 0E45           01277             MOVLW   'E'             ;MOVE P PARA W
0003B6 6EAD           01278             MOVWF   TXREG           ;MOVE PARA TXREG
0003B8 EC?? F???      01279             CALL    BUFFER
0003BC 0E52           01280             MOVLW   'R'             ;MOVE P PARA W
0003BE 6EAD           01281             MOVWF   TXREG           ;MOVE PARA TXREG
0003C0 EC?? F???      01282             CALL    BUFFER
0003C4 6EAD           01283             MOVWF   TXREG
0003C6 0E0D           01284             MOVLW   .13             ;MOVE % PARA W
0003C8 6EAD           01285             MOVWF   TXREG           ;MOVE PARA TXREG
0003CA EC?? F???      01286             CALL    BUFFER
0003CE 0012           01287             RETURN
                      01288 ;******************************************************************************
                      01289 ;                       LEITURA DOS SENSORES ANALOGICOS
                      01290 ;******************************************************************************
0003D0                01291 LEITURA_SENSORES  
0003D0 0E00           01292             MOVLW   .0
0003D2 1856           01293             XORWF   DIAS,W
0003D4 B4D8           01294             BTFSC   STATUS,Z
0003D6 EF?? F???      01295             GOTO    PULA_COLHEITA
MPASM 5.87                   VAI DAR BOM.ASM   12-15-2020  2:16:19         PAGE 26


LOC  OBJECT CODE     LINE SOURCE TEXT
  VALUE

0003DA 0656           01296             DECF    DIAS,F
0003DC B4D8           01297             BTFSC   STATUS,Z
0003DE EC?? F???      01298             CALL    COLHEITA
0003E2                01299 PULA_COLHEITA
0003E2 A64A           01300             BTFSS   PLANTA_I_S
0003E4 0012           01301             RETURN
0003E6 0E03           01302             MOVLW   B'00000011'         ;MOVE O VALOR 3 CONFIGURANDO A LEITURA 
                      01303                                         ;DO AN0
0003E8 6EC2           01304             MOVWF   ADCON0              ;CONFIGURA O REGISTRADOR ADCON0
0003EA EC?? F???      01305             CALL    ESPERA_LEITURA      ;ESPERA ATE QUE A LEITURA DA ENTRADA 
                      01306                                         ;ESTEJA CONCLUIDA
0003EE 50C4           01307             MOVF    ADRESH,W            ;MOVE O VALOR LIDO PARA W
0003F0 6E3F           01308             MOVWF   LUMINOSIDADE_L      ;MOVE O VALOR DE W PARA A VARIAVEL
                      01309             
0003F2 0E07           01310             MOVLW   B'00000111'         ;MOVE O VALOR 3 CONFIGURANDO A LEITURA DO AN1
0003F4 6EC2           01311             MOVWF   ADCON0              ;CONFIGURA O REGISTRADOR ADCON0
0003F6 EC?? F???      01312             CALL    ESPERA_LEITURA      ;ESPERA ATE QUE A LEITURA DA ENTRADA ESTEJA CONCLUIDA
0003FA 50C4           01313             MOVF    ADRESH,W            ;MOVE O VALOR LIDO PARA W
0003FC 6E3E           01314             MOVWF   TEMPERATURA_L       ;MOVE O VALOR DE W PARA A VARIAVEL 
                      01315             
0003FE 0E0B           01316             MOVLW   B'00001011'         ;MOVE O VALOR 3 CONFIGURANDO A LEITURA DO AN2
000400 6EC2           01317             MOVWF   ADCON0              ;CONFIGURA O REGISTRADOR ADCON0
000402 EC?? F???      01318             CALL    ESPERA_LEITURA      ;ESPERA ATE QUE A LEITURA DA ENTRADA ESTEJA CONCLUIDA
000406 50C4           01319             MOVF    ADRESH,W            ;MOVE O VALOR LIDO PARA W
000408 6E40           01320             MOVWF   UMIDADE_L           ;MOVE O VALOR DE W PARA A VARIAVEL   
                      01321           
00040A EC?? F???      01322             CALL    DIVISAO             ;CHAMA ROTINA DE DIVISAO
00040E 6E31           01323             MOVWF   UMIDADE             ;MOVE O RESULTADO PARA UMIDADE
000410 0E63           01324             MOVLW   .99                 ;MOVW 99 PARA W
000412 6431           01325             CPFSGT  UMIDADE,W           ;COMPARA 99 COM UMIDADE
000414 EF?? F???      01326             GOTO    PULA_UMIDA          ; SE MENOR PULE
000418 0E63           01327             MOVLW   .99                 ;SE MAIOR 99 PARA W
00041A 6E31           01328             MOVWF   UMIDADE             ;MOVER PRA UMIDADE
                      01329 
00041C                01330 PULA_UMIDA          
00041C 503F           01331             MOVF    LUMINOSIDADE_L,W    ;MOVE VALOR DE LUMINOSIDADE PARA W
00041E EC?? F???      01332             CALL    DIVISAO             ;CHAMA DIVISAO
000422 6E32           01333             MOVWF   LUMINOSIDADE        ;MOVE RESULTADO PARA LUMINOSIDADE
000424 0E63           01334             MOVLW   .99                 ;MOVE 99 PARA W
000426 6432           01335             CPFSGT  LUMINOSIDADE,W      ;COMPARA 99 COM LUMINOSIDADE
000428 EF?? F???      01336             GOTO    PULA_LUMI           ; SE MENOR PULE
00042C 0E63           01337             MOVLW   .99                 ;SE MAIOR 99 PARA W
00042E 6E32           01338             MOVWF   LUMINOSIDADE        ;MOVER PRA LUMINOSIDADE
                      01339             
                      01340             
000430                01341 PULA_LUMI
000430 503E           01342             MOVF    TEMPERATURA_L,W     ;MOVE VALOR DE TEMEPRATURA PARA W
000432 844A           01343             BSF     TEMP_DIVI           ;ACIONA A FLAG TEMP_DIVI 
                      01344                                         ;PARA MUDAR O DIVISOR
000434 EC?? F???      01345             CALL    DIVISAO             ;CHAMA DIVISAO
000438 6E33           01346             MOVWF   TEMPERATURA         ;MOVE RESULTADO PARA TEMPERATURA
00043A 0E1B           01347             MOVLW   .27                 ;MOVE 27 PARA W
00043C 5C33           01348             SUBWF   TEMPERATURA,W       ;SUBRITRAI 27 DE TEMPERATURA
MPASM 5.87                   VAI DAR BOM.ASM   12-15-2020  2:16:19         PAGE 27


LOC  OBJECT CODE     LINE SOURCE TEXT
  VALUE

00043E A8D8           01349             BTFSS   STATUS,N            ;RESULTADO FOI NEGATIVO
000440 EC?? F???      01350             CALL    SOMA_02             ;NÃO CHAMA SOMA_02
                      01351             
000444 EC?? F???      01352             CALL    TRATA_VALORES       ;CHAMA TRATA VALORES
000448 0E04           01353             MOVLW   H'04'               ;MOVE 4 PARA W
00044A 183A           01354             XORWF   SELECAO,0           ;COMPARA O VALOR DA SELEÇÃO COM W
00044C A4D8           01355             BTFSS   STATUS,Z            ;TESTA SE A COMPARAÇÃO DEU 0
00044E 0012           01356             RETURN                      ;SE SIM VA PARA ...
000450 A245           01357             BTFSS   ENTRA               ;TESTA A FLAG ENTRA
000452 0012           01358             RETURN                      ;RETORNA
000454 EC?? F???      01359             CALL    SENSORES_ENTER      ;CHAMA TELA DE LCD SENSORES_ENTER
000458 0012           01360             RETURN                      ;RETORNA
                      01361 
00045A                01362 SOMA_02  
00045A 0E01           01363             MOVLW   .1                  ;MOVE 1 PARA W
00045C 5E33           01364             SUBWF   TEMPERATURA,F       ;SUBTRAI 1 DE TEMPERATURA
00045E 0012           01365             RETURN                      ;RETORNA
                      01366             
                      01367             
                      01368 
                      01369             
000460                01370 ESPERA_LEITURA
000460 B2C2           01371             BTFSC   ADCON0,GO_DONE      ;TESTA SE A CAPTURA DO VALOR JA FOI REALIZADA
000462 EF?? F???      01372             GOTO    ESPERA_LEITURA      ;LOPPING
000466 0012           01373             RETURN                      ;VOLTA
                      01374 ;******************************************************************************
                      01375 ;                       TRATA VALORES DOS SENSORES ANALOGICOS 
                      01376 ;******************************************************************************
000468                01377 DIVISAO     
                      01378             
000468 6A3D           01379             CLRF    RESULTADO_DIVI      ;LIMPA RESULTADO
00046A 6E41           01380             MOVWF   VALOR               ;MOVE W PARA VALOR
00046C B44A           01381             BTFSC   TEMP_DIVI           ;TESTA A FLAG PRA MUDAR O DIVISOR
00046E EF?? F???      01382             GOTO    TEMP_               ;FLAG SETADA
000472                01383 UMI_
000472 0E02           01384             MOVLW   .2                  ;MOVE 2 PARA W
000474 6E3C           01385             MOVWF   DIVI                ;MOVE W PARA DIVI
000476 EF?? F???      01386             GOTO    DIVI_01             ;VA PARA DIVI_01
00047A                01387 TEMP_
00047A 0E04           01388             MOVLW   .4                  ;MOVE 4 PARA W
00047C 6E3C           01389             MOVWF   DIVI                ;MOVE W PARA DIVI
00047E                01390 DIVI_01
00047E 503C           01391             MOVF    DIVI,W              ;MOVE DIVI PARA W
000480 5E41           01392             SUBWF   VALOR,F             ;SUBTRAI DO VALOR E ARMAZENA NO MESMO
000482 A0D8           01393             BTFSS   STATUS,C            ;TESTA SE O BIT DE CARRY VIROU 1
000484 EF?? F???      01394             GOTO    D_MENO              ;SIM VAI PARA D_MENO
000488 2A3D           01395             INCF    RESULTADO_DIVI,F    ;INCREMENTA RESULTADO
00048A EF?? F???      01396             GOTO    DIVI_01             ;CHAMA DIV1_01 PARA CRIAR UM LOOP
00048E                01397 D_MENO  
00048E 503D           01398             MOVF   RESULTADO_DIVI,W     ;MOVE O RESULTADO DA OPERACAO PARA W
000490 944A           01399             BCF    TEMP_DIVI            ;DESABILITA A FLAG 
000492 0012           01400             RETURN                      ;RETORNA 
                      01401 ;******************************************************************************
MPASM 5.87                   VAI DAR BOM.ASM   12-15-2020  2:16:19         PAGE 28


LOC  OBJECT CODE     LINE SOURCE TEXT
  VALUE

                      01402 ;               TRANSFORMA VALORES BINARIO EM DEZENA E UNIDADE
                      01403 ;******************************************************************************
                      01404 
000494                01405 TRANFORMA_ASCII
                      01406             
000494 6E42           01407             MOVWF   VALOR_B             ;MOVE W PARA VALOR_B
000496 0E00           01408             MOVLW   .0                  ;MOVE 0 PARA W
000498 1842           01409             XORWF   VALOR_B,W           ;COMPARA W E VALOR_B
00049A B4D8           01410             BTFSC   STATUS,Z            ;É IGUAL A ZERO?
00049C EF?? F???      01411             GOTO    MANDA_ZERO          ;SIM VIA PARA...
                      01412                 
0004A0 B4D8           01413             BTFSC   STATUS,Z            ;É IGUAL A ZERO?
0004A2 EF?? F???      01414             GOTO    LIMPA               ;SIM GOTO LIMPA
0004A6 6A43           01415             CLRF    UNIDADE             ;LIMPA A VARIAVEL UNIDADE
0004A8 6A44           01416             CLRF    DEZENA              ;LIMPA A VARIAVEL DEZENA
0004AA                01417 LOOP_UNI
0004AA 2A43           01418             INCF    UNIDADE             ;INCREMENTA UNIDADE
0004AC 0642           01419             DECF    VALOR_B             ;DECREMTENRA VALOR_B
0004AE A4D8           01420             BTFSS   STATUS,Z            ;É ZERO?
0004B0 EF?? F???      01421             GOTO    TESTE_DEZENA        ;NÃO VA PARA...
0004B4 EC?? F???      01422             CALL    TESTE_DEZENA_FIM    ;SIM VAI PARA...
0004B8 EF?? F???      01423             GOTO    SOMA_30H            ;VA PARA ...
0004BC                01424 TESTE_DEZENA
0004BC 0E0A           01425             MOVLW   .10                 ;MOVE 10 PARA W
0004BE 1843           01426             XORWF   UNIDADE,0           ;COMPARA W COM UNIDADE
0004C0 A4D8           01427             BTFSS   STATUS,Z            ;SÃO IGUAIS?
0004C2 EF?? F???      01428             GOTO    LOOP_UNI            
0004C6 6A43           01429             CLRF    UNIDADE
0004C8 2A44           01430             INCF    DEZENA
0004CA EF?? F???      01431             GOTO    LOOP_UNI
0004CE                01432 TESTE_DEZENA_FIM
0004CE 0E0A           01433             MOVLW   .10
0004D0 1843           01434             XORWF   UNIDADE,0
0004D2 A4D8           01435             BTFSS   STATUS,Z
0004D4 0012           01436             RETURN
0004D6 6A43           01437             CLRF    UNIDADE
0004D8 2A44           01438             INCF    DEZENA
0004DA 0012           01439             RETURN
0004DC                01440 LIMPA
0004DC 6A43           01441             CLRF    UNIDADE
0004DE 6A44           01442             CLRF    DEZENA  
0004E0 0012           01443             RETURN
0004E2                01444 SOMA_30H    
0004E2 0E30           01445             MOVLW  .48
0004E4 2643           01446             ADDWF   UNIDADE,F
0004E6 2644           01447             ADDWF   DEZENA,F
0004E8 0012           01448             RETURN
0004EA                01449 MANDA_ZERO
0004EA 0E30           01450             MOVLW  .48
0004EC 6E43           01451             MOVWF   UNIDADE
0004EE 6E44           01452             MOVWF   DEZENA
0004F0 0012           01453             RETURN
                      01454             
MPASM 5.87                   VAI DAR BOM.ASM   12-15-2020  2:16:19         PAGE 29


LOC  OBJECT CODE     LINE SOURCE TEXT
  VALUE

                      01455             
                      01456 ;*******************************************************************************
                      01457 ;                        TRATA VALROES DE SENSORES REAL VS IDEIAL 
                      01458 ;*******************************************************************************
0004F2                01459 TRATA_VALORES
0004F2                01460 VER_TEMPERATURA
0004F2 9C2D           01461             BCF     RESULT_MAIS 
0004F4 9E2D           01462             BCF     RESULT_MENO
0004F6 5034           01463             MOVF    TEMP_IDEIAL_MAX,W   ;Pega valores setados para comparação
0004F8 6E2B           01464             MOVWF   MAX                 ;move para MAX
0004FA 5047           01465             MOVF    TEMP_IDEIAL_MIN,W
0004FC 6E2C           01466             MOVWF   MIN                 ;MOVE PARA MIM
0004FE 5033           01467             MOVF    TEMPERATURA,W       ;MOVE O VALOR LIDO NO SENSOR PARA W
000500 EC?? F???      01468             CALL    VERIFICA_MAIS
000504 BC2D           01469             BTFSC   RESULT_MAIS
000506 8684           01470             BSF     VENTI
000508 5033           01471             MOVF    TEMPERATURA,W
00050A EC?? F???      01472             CALL    VERIFICA_MENOS
00050E BE2D           01473             BTFSC   RESULT_MENO
000510 9684           01474             BCF     VENTI
                      01475             
000512                01476 VER_LUMINOSIDADE
000512 9C2D           01477             BCF     RESULT_MAIS 
000514 9E2D           01478             BCF     RESULT_MENO
000516 5036           01479             MOVF    LUMI_IDEIAL_MAX,W   ;Pega valores setados para comparação
000518 6E2B           01480             MOVWF   MAX                 ;move para MAX
00051A 5049           01481             MOVF    LUMI_IDEIAL_MIN,W
00051C 6E2C           01482             MOVWF   MIN                 ;MOVE PARA MIM
00051E 5032           01483             MOVF    LUMINOSIDADE,W      ;MOVE O VALOR LIDO NO SENSOR PARA W
000520 EC?? F???      01484             CALL    VERIFICA_MAIS
000524 BC2D           01485             BTFSC   RESULT_MAIS
000526 EC?? F???      01486             CALL    DESLIGA_L
00052A 5032           01487             MOVF    LUMINOSIDADE,W
00052C EC?? F???      01488             CALL    VERIFICA_MENOS
000530 BE2D           01489             BTFSC   RESULT_MENO
000532 EC?? F???      01490             CALL    LIGA_L
                      01491 
                      01492             
000536                01493 VER_UMIDADE
000536 9C2D           01494             BCF     RESULT_MAIS 
000538 9E2D           01495             BCF     RESULT_MENO
00053A 5035           01496             MOVF    UMID_IDEIAL_MAX,W   ;Pega valores setados para comparação
00053C 6E2B           01497             MOVWF   MAX                 ;move para MAX
00053E 5048           01498             MOVF    UMID_IDEIAL_MIN,W
000540 6E2C           01499             MOVWF   MIN                 ;MOVE PARA MIM
000542 5031           01500             MOVF    UMIDADE,W           ;MOVE O VALOR LIDO NO SENSOR PARA W
000544 EC?? F???      01501             CALL    VERIFICA_MAIS
000548 EC?? F???      01502             CALL    DESLIGA_MOTOR
00054C 5031           01503             MOVF    UMIDADE,W
00054E EC?? F???      01504             CALL    VERIFICA_MENOS
000552 BE2D           01505             BTFSC   RESULT_MENO
000554 EC?? F???      01506             CALL    LIGA_MOTOR
000558 0012           01507             RETURN
MPASM 5.87                   VAI DAR BOM.ASM   12-15-2020  2:16:19         PAGE 30


LOC  OBJECT CODE     LINE SOURCE TEXT
  VALUE

00055A                01508 LIGA_L 
00055A BE45           01509             BTFSC       LEDS
00055C 0012           01510             RETURN
00055E EC?? F???      01511             CALL        AZUL
000562 EC?? F???      01512             CALL        VERMELHO
000566 EC?? F???      01513             CALL        AZUL
00056A EC?? F???      01514             CALL        VERMELHO
00056E EC?? F???      01515             CALL        AZUL
000572 EC?? F???      01516             CALL        VERMELHO
000576 EC?? F???      01517             CALL        AZUL
00057A EC?? F???      01518             CALL        VERMELHO
00057E 8E45           01519             BSF         LEDS
000580 0012           01520             RETURN
000582                01521 DESLIGA_L
000582 EC?? F???      01522             CALL        PRETO
000586 EC?? F???      01523             CALL        PRETO
00058A EC?? F???      01524             CALL        PRETO
00058E EC?? F???      01525             CALL        PRETO
000592 EC?? F???      01526             CALL        PRETO
000596 EC?? F???      01527             CALL        PRETO
00059A EC?? F???      01528             CALL        PRETO
00059E EC?? F???      01529             CALL        PRETO
0005A2 9E45           01530             BCF         LEDS
0005A4 0012           01531             RETURN
                      01532 ;*******************************************************************************
                      01533 ;                       SETA AS FLAGS DE MAIS E MENOS
                      01534 ;*******************************************************************************
0005A6                01535 MAIOR_
0005A6 8C2D           01536             BSF     RESULT_MAIS         ;SETA A FLAG, INDICANDO QUE O VALOR ESTA ALTO
0005A8 0012           01537             RETURN
0005AA                01538 MENOR_
0005AA 8E2D           01539             BSF     RESULT_MENO ;SETA A FLAG, INDICANDO QUE O VALOR ESTA ALTO
0005AC 0012           01540             RETURN
                      01541             
                      01542             
                      01543 ;*******************************************************************************
                      01544 ;                       FAZ A COMPARAÇÃO ENTRE O VALORES
                      01545 ;*******************************************************************************            
0005AE                01546 VERIFICA_MAIS
                      01547             
0005AE 5C2B           01548             SUBWF  MAX,0                ;SUBRITAI O VALOR DE MAX DO W
0005B0 B8D8           01549             BTFSC  STATUS,N             ;SE W FOR MAIOR QUE MAX GOTO MAIOR,
                      01550                                         ;CASO SEJA MENOR PULE
0005B2 EF?? F???      01551             GOTO   MAIOR_               ;VAI PARA SETAR A FLAG MAIOR 
0005B6 6E39           01552             MOVWF  RESULTADO            ;MOVE O RESULTADO DA OPERAÇÃO ACIMA PARA RESULTADO
                      01553 
0005B8 0012           01554             RETURN
0005BA                01555 VERIFICA_MENOS
0005BA 5C2C           01556             SUBWF  MIN,0                ;SUBRITAI O VALOR DE MAX DO W
0005BC A8D8           01557             BTFSS  STATUS,N             ;SE W FOR MAIOR QUE MIN GOTO MENOR_,
                      01558                                         ;CASO SEJA MAIOR PULE
0005BE EF?? F???      01559             GOTO   MENOR_               ;VAI PARA SETAR A FLAG MAIOR 
                      01560 
MPASM 5.87                   VAI DAR BOM.ASM   12-15-2020  2:16:19         PAGE 31


LOC  OBJECT CODE     LINE SOURCE TEXT
  VALUE

0005C2 0012           01561             RETURN
                      01562 ;******************************************************************************
                      01563 ;                       TELA QUE SERA TRANMITIDA NO LCD
                      01564 ;******************************************************************************
                      01565                 
0005C4                01566 TELA_LCD    
0005C4 BA45           01567             BTFSC   BOT_ALTO
0005C6 0012           01568             RETURN  
0005C8 8A45           01569             BSF     BOT_ALTO
                      01570             
0005CA B42D           01571             BTFSC   BAIXO               ;TESTA A FLAG BAIXO
0005CC EC?? F???      01572             CALL    DEC_                        ;SE ATIVA VA PARA DECREMENTA
                      01573             
0005D0 B62D           01574             BTFSC   CIMA                ;TESTA A FLAG BAIXO
0005D2 EC?? F???      01575             CALL    INC_                        ;SE ATIVA VA PARA INCREMENTA
                      01576             
0005D6 B82D           01577             BTFSC   ENTER               ;TESTA A FLAG BAIXO
0005D8 EC?? F???      01578             CALL    SELECT_E            ;SE ATIVA VA PARA SELECT
                      01579             
0005DC B045           01580             BTFSC   MENU                ;TESTA A FLAG BAIXO
0005DE EC?? F???      01581             CALL    SELECT_S            ;SE ATIVA VA PARA SELECT
                      01582             
0005E2 0E00           01583             MOVLW   H'00'               ;MOVE 0 PARA W
0005E4 183A           01584             XORWF   SELECAO,0           ;COMPARA O VALOR DA SELEÇÃO COM W
0005E6 B4D8           01585             BTFSC   STATUS,Z
0005E8 EF?? F???      01586             GOTO    TELA_INICIO
                      01587             
0005EC 0E01           01588             MOVLW   H'01'               ;MOVE 1 PARA W
0005EE 183A           01589             XORWF   SELECAO,0           ;COMPARA O VALOR DA SELEÇÃO COM W
0005F0 B4D8           01590             BTFSC   STATUS,Z            ;TESTA SE A COMPARAÇÃO DEU 0
0005F2 EF?? F???      01591             GOTO    PLANTA_S            ;SE SIM VA PARA ...
                      01592             
0005F6 0E02           01593             MOVLW   H'02'               ;MOVE 2 PARA W
0005F8 183A           01594             XORWF   SELECAO,0           ;COMPARA O VALOR DA SELEÇÃO COM W
0005FA B4D8           01595             BTFSC   STATUS,Z            ;TESTA SE A COMPARAÇÃO DEU 0
0005FC EF?? F???      01596             GOTO    SAIDA_S             ;SE SIM VA PARA ...
                      01597             
000600 0E03           01598             MOVLW   H'03'               ;MOVE 3 PARA W
000602 183A           01599             XORWF   SELECAO,0           ;COMPARA O VALOR DA SELEÇÃO COM W
000604 B4D8           01600             BTFSC   STATUS,Z            ;TESTA SE A COMPARAÇÃO DEU 0
000606 EF?? F???      01601             GOTO    ENTRADAS_S          ;SE SIM VA PARA ...
                      01602             
00060A 0E04           01603             MOVLW   H'04'               ;MOVE 4 PARA W
00060C 183A           01604             XORWF   SELECAO,0           ;COMPARA O VALOR DA SELEÇÃO COM W
00060E B4D8           01605             BTFSC   STATUS,Z            ;TESTA SE A COMPARAÇÃO DEU 0
000610 EF?? F???      01606             GOTO    SENSORES            ;SE SIM VA PARA ...
                      01607             
                      01608             
000614 0E05           01609             MOVLW   H'05'               ;MOVE 4 PARA W
000616 183A           01610             XORWF   SELECAO,0           ;COMPARA O VALOR DA SELEÇÃO COM W
000618 B4D8           01611             BTFSC   STATUS,Z            ;TESTA SE A COMPARAÇÃO DEU 0
00061A EF?? F???      01612             GOTO    TELA_INICIO         ;SE SIM VA PARA ...
00061E                01613 CONTINUA_LCD        
MPASM 5.87                   VAI DAR BOM.ASM   12-15-2020  2:16:19         PAGE 32


LOC  OBJECT CODE     LINE SOURCE TEXT
  VALUE

                      01614           ;ROTINA PARA EVITAR QUE O VALOR DE SELEÇÃO FUJA DO ESPERADO  
00061E 0EFF           01615             MOVLW   H'FF'               ;MOVE 255 PARA W
000620 183A           01616             XORWF   SELECAO,0           ;COMPARA O VALOR DA SELEÇÃO COM W
000622 B4D8           01617             BTFSC   STATUS,Z            ;TESTA SE A COMPARAÇÃO DEU 0
000624 EF?? F???      01618             GOTO    R_SELECAO           ;SE SIM VA PARA
                      01619             
                      01620             
000628 0EFE           01621             MOVLW   H'FE'               ;MOVE 255 PARA W
00062A 183A           01622             XORWF   SELECAO,0           ;COMPARA O VALOR DA SELEÇÃO COM W
00062C B4D8           01623             BTFSC   STATUS,Z            ;TESTA SE A COMPARAÇÃO DEU 0
00062E EF?? F???      01624             GOTO    R_SELECAO           ;SE SIM VA PARA
                      01625             
000632 0E06           01626             MOVLW   H'06'               ;MOVE 255 PARA W
000634 183A           01627             XORWF   SELECAO,0           ;COMPARA O VALOR DA SELEÇÃO COM W
000636 B4D8           01628             BTFSC   STATUS,Z            ;TESTA SE A COMPARAÇÃO DEU 0
000638 EF?? F???      01629             GOTO    TELA_INICIO         ;SE SIM VA PARA
                      01630 
00063C 942D           01631             BCF     BAIXO               ;DESATIVA A FLAG
00063E 962D           01632             BCF     CIMA                ;DESATIVA A FLAG
000640 982D           01633             BCF     ENTER               ;DESATIVA A FLAG
000642 9045           01634             BCF     MENU                ;DESATIVA A FLAG
000644 8A45           01635             BSF     BOT_ALTO
000646 503A           01636             MOVF    SELECAO,W
000648 0012           01637             RETURN
00064A                01638 TELA_INICIO
00064A 0E00           01639             MOVLW   H'00'               ;MOVE 0 PARA W
00064C 6E3A           01640             MOVWF   SELECAO
00064E EC?? F???      01641             CALL    LCDCLEAR            ;LIMPA LCD
000652 0E80           01642             MOVLW   0X80                ;MOVE 0X81 PARA W
000654 EC?? F???      01643             CALL    LCDLOCATE           ;CHAMA ROTINA DE POSIÇÃO DO LCD
000658 EC?? F???      01644             CALL    LS                  ;ENVIA A LETRA PARA O LCD
00065C EC?? F???      01645             CALL    LT                  ;ENVIA A LETRA PARA O LCD
000660 EC?? F???      01646             CALL    LA                  ;ENVIA A LETRA PARA O LCD               
000664 EC?? F???      01647             CALL    LT                  
000668 EC?? F???      01648             CALL    LU                  
00066C EC?? F???      01649             CALL    LS  
000670 0E3A           01650             MOVLW   ":"
000672 EC?? F???      01651             CALL    LCDSENDDATA
000676 EC?? F???      01652             CALL    TESTES_ESTADO
                      01653 
                      01654             
                      01655          
00067A 0EC0           01656             MOVLW   0XC0                ;MOVE 0XC3 PARA W
00067C EC?? F???      01657             CALL    LCDLOCATE           ;CHAMA ROTINA DE POSIÇÃO DO LCD
000680 EC?? F???      01658             CALL    LC                  ;ENVIA A LETRA PARA O LCD
000684 EC?? F???      01659             CALL    LO                  ;ENVIA A LETRA PARA O LCD
000688 EC?? F???      01660             CALL    LL                  ;ENVIA A LETRA PARA O LCD
00068C EC?? F???      01661             CALL    LH
000690 EC?? F???      01662             CALL    LE
000694 EC?? F???      01663             CALL    LI
000698 EC?? F???      01664             CALL    LT
00069C EC?? F???      01665             CALL    LA
0006A0 EC?? F???      01666             CALL    ESPACO
MPASM 5.87                   VAI DAR BOM.ASM   12-15-2020  2:16:19         PAGE 33


LOC  OBJECT CODE     LINE SOURCE TEXT
  VALUE

0006A4 EC?? F???      01667             CALL    LE
0006A8 EC?? F???      01668             CALL    LM
0006AC 0E3A           01669             MOVLW   ":"
0006AE EC?? F???      01670             CALL    LCDSENDDATA
0006B2 5056           01671             MOVF    DIAS,W
0006B4 EC?? F???      01672             CALL    TRANFORMA_ASCII
0006B8 5044           01673             MOVF    DEZENA,W
0006BA EC?? F???      01674             CALL    LCDSENDDATA
0006BE 5043           01675             MOVF    UNIDADE,W
0006C0 EC?? F???      01676             CALL    LCDSENDDATA
0006C4 9645           01677             BCF    ENTRA_1              ;LIMPA A FLAG ENTRA_1
0006C6 9245           01678             BCF    ENTRA                ;LIMPA A FLAG ENTRA
0006C8 EF?? F???      01679             GOTO    CONTINUA_LCD                        ;RETORNA
0006CC                01680 TESTES_ESTADO
0006CC 0E00           01681             MOVLW   .0
0006CE 6256           01682             CPFSEQ  DIAS,W
0006D0 EF?? F???      01683             GOTO    ESTADO_2
0006D4 EC?? F???      01684             CALL    LC                  ;ENVIA A LETRA PARA O LCD
0006D8 EC?? F???      01685             CALL    LO                  ;ENVIA A LETRA PARA O LCD
0006DC EC?? F???      01686             CALL    LL                  ;ENVIA A LETRA PARA O LCD
0006E0 EC?? F???      01687             CALL    LH
0006E4 EC?? F???      01688             CALL    LE
0006E8 EC?? F???      01689             CALL    LI
0006EC EC?? F???      01690             CALL    LT
0006F0 EC?? F???      01691             CALL    LA
0006F4 0012           01692             RETURN
0006F6                01693 ESTADO_2    
0006F6 A845           01694             BTFSS   DESLIGA_M
0006F8 EF?? F???      01695             GOTO    ESTADO_03
0006FC                01696 OK__
0006FC EC?? F???      01697             CALL    LO
000700 EC?? F???      01698             CALL    LK
000704 0012           01699             RETURN
000706                01700 ESTADO_03   
000706 B845           01701             BTFSC   DESLIGA_M
000708 EF?? F???      01702             GOTO    OK__
00070C EC?? F???      01703             CALL    LR
000710 EC?? F???      01704             CALL    LE
000714 EC?? F???      01705             CALL    LG
000718 EC?? F???      01706             CALL    LA
00071C EC?? F???      01707             CALL    LN
000720 EC?? F???      01708             CALL    LD
000724 EC?? F???      01709             CALL    LO
000728 0012           01710             RETURN
                      01711                      ;ROTINA PARA MOSTRAR O MENU DE SELECAO DE PLANTAS
00072A                01712 PLANTA_S
00072A B245           01713             BTFSC   ENTRA               ;TESTA SE O BOTAO ENTER DOI PRESSIONADO
00072C EF?? F???      01714             GOTO    PLANTA_S_ENTER      ;SE SIM, VA PARA ...
000730 EC?? F???      01715             CALL    LCDCLEAR            ;LIMPA LCD 
000734 0E80           01716             MOVLW   0X80                ;MOVE 0X80 PARA W
000736 EC?? F???      01717             CALL    LCDLOCATE           ;POSICIONA CURSOR NA PRIMEIRA LINHA PRIMERA COLUNA
00073A EC?? F???      01718             CALL    LS                  ;ENVIA A LETRA 
00073E EC?? F???      01719             CALL    LE
MPASM 5.87                   VAI DAR BOM.ASM   12-15-2020  2:16:19         PAGE 34


LOC  OBJECT CODE     LINE SOURCE TEXT
  VALUE

000742 EC?? F???      01720             CALL    LL
000746 EC?? F???      01721             CALL    LE
00074A EC?? F???      01722             CALL    LC
00074E EC?? F???      01723             CALL    LA
000752 EC?? F???      01724             CALL    LO
000756 EC?? F???      01725             CALL    ESPACO              ;ENVIA ESPACO
00075A EC?? F???      01726             CALL    LP
00075E EC?? F???      01727             CALL    LL
000762 EC?? F???      01728             CALL    LA  
000766 EC?? F???      01729             CALL    LN
00076A EC?? F???      01730             CALL    LT
00076E EC?? F???      01731             CALL    LA
000772 EC?? F???      01732             CALL    LS
000776 0EC0           01733             MOVLW   0XC0               ;MOVE 0XC0 PARA W
000778 EC?? F???      01734             CALL    LCDLOCATE          ;POSICIONA CURSOR NA SEGUNDA LINHA PRIMERA COLUNA
00077C EC?? F???      01735             CALL    LP
000780 EC?? F???      01736             CALL    LR
000784 EC?? F???      01737             CALL    LE
000788 EC?? F???      01738             CALL    LS
00078C EC?? F???      01739             CALL    LS
000790 EC?? F???      01740             CALL    LI
000794 EC?? F???      01741             CALL    LO  
000798 EC?? F???      01742             CALL    LN
00079C EC?? F???      01743             CALL    LE
0007A0 EC?? F???      01744             CALL    ESPACO
0007A4 EC?? F???      01745             CALL    LE
0007A8 EC?? F???      01746             CALL    LN  
0007AC EC?? F???      01747             CALL    LT
0007B0 EC?? F???      01748             CALL    LE
0007B4 EC?? F???      01749             CALL    LR
0007B8 EF?? F???      01750             GOTO    CONTINUA_LCD                        ;RETURN
                      01751 
                      01752                                          ;ROTINA DE QUANDO ENTRE É PRESSINADO 
0007BC                01753 PLANTA_S_ENTER
                      01754             
0007BC EC?? F???      01755             CALL    LCDCLEAR            ;LIMPA LCD
0007C0 EC?? F???      01756             CALL    LD
0007C4 EC?? F???      01757             CALL    LE
0007C8 EC?? F???      01758             CALL    LS
0007CC EC?? F???      01759             CALL    LE
0007D0 EC?? F???      01760             CALL    LJ
0007D4 EC?? F???      01761             CALL    LA
0007D8 EC?? F???      01762             CALL    ESPACO              
0007DC EC?? F???      01763             CALL    LP
0007E0 EC?? F???      01764             CALL    LL
0007E4 EC?? F???      01765             CALL    LA
0007E8 EC?? F???      01766             CALL    LN
0007EC EC?? F???      01767             CALL    LT
0007F0 EC?? F???      01768             CALL    LA
0007F4 EC?? F???      01769             CALL    LR
0007F8 0E3A           01770             MOVLW   ":"                 ;MOVE : PARA W
0007FA EC?? F???      01771             CALL    LCDSENDDATA         ;ENVIA DADO PARA LCD
0007FE 0E00           01772             MOVLW   H'00'               ;MOVE 0 PARA W
MPASM 5.87                   VAI DAR BOM.ASM   12-15-2020  2:16:19         PAGE 35


LOC  OBJECT CODE     LINE SOURCE TEXT
  VALUE

000800 1846           01773             XORWF   SELECAO_E,0         ;COMPARA O VALOR DA SELEÇÃO COM W
000802 B4D8           01774             BTFSC   STATUS,Z            ;TESTA SE A COMPARAÇÃO DEU 0
000804 EF?? F???      01775             GOTO    ALFACE_LCD          ;SE SIM VA PARA ...
                      01776             
000808 0E01           01777             MOVLW   H'01'               ;MOVE 1 PARA W
00080A 1846           01778             XORWF   SELECAO_E,0         ;COMPARA O VALOR DA SELEÇÃO COM W
00080C B4D8           01779             BTFSC   STATUS,Z            ;TESTA SE A COMPARAÇÃO DEU 0
00080E EF?? F???      01780             GOTO    CEBOLINHA_LCD               ;SE SIM VA PARA ...
                      01781             
000812 0E02           01782             MOVLW   H'02'               ;MOVE 2 PARA W
000814 1846           01783             XORWF   SELECAO_E,0         ;COMPARA O VALOR DA SELEÇÃO COM W
000816 B4D8           01784             BTFSC   STATUS,Z            ;TESTA SE A COMPARAÇÃO DEU 0
000818 EF?? F???      01785             GOTO    SALSINHA_LCD                ;SE SIM VA PARA ...
                      01786             
00081C 0E03           01787             MOVLW   H'03'               ;MOVE 3 PARA W
00081E 1846           01788             XORWF   SELECAO_E,0         ;COMPARA O VALOR DA SELEÇÃO COM W
000820 B4D8           01789             BTFSC   STATUS,Z            ;TESTA SE A COMPARAÇÃO DEU 0
000822 EF?? F???      01790             GOTO    ALFACE_LCD          ;SE SIM VA PARA ...
                      01791                
                      01792             
000826 0EFF           01793             MOVLW   H'FF'               ;MOVE 255 PARA W
000828 1846           01794             XORWF   SELECAO_E,0         ;COMPARA O VALOR DA SELEÇÃO COM W
00082A B4D8           01795             BTFSC   STATUS,Z            ;TESTA SE A COMPARAÇÃO DEU 0
00082C EF?? F???      01796             GOTO   SALSINHA_LCD ;SE SIM VA PARA
                      01797             
                      01798             
                      01799             
000830                01800 TESTE_ENTRA_1
000830 B645           01801             BTFSC   ENTRA_1             ;TESTA SE O ENTER FOI PRESSINADO DUAS VEZES
000832 EF?? F???      01802             GOTO    LIMPA_ENTRA         ;SE SIM A SELEÇÃO JA TERMINOU
000836 EF?? F???      01803             GOTO    CONTINUA_LCD
00083A                01804 LIMPA_ENTRA
00083A EC?? F???      01805             CALL   CURSOR_OFF
00083E 9A4A           01806             BCF    ENTRA_3
000840 984A           01807             BCF    ENTRA_2
000842 9645           01808             BCF    ENTRA_1              ;LIMPA A FLAG ENTRA_1
000844 9245           01809             BCF    ENTRA                ;LIMPA A FLAG ENTRA
000846 0E00           01810             MOVLW  .0                   
000848 6E46           01811             MOVWF  SELECAO_E            ;LIMPA O SELECAO_E
00084A EF?? F???      01812             GOTO    TELA_INICIO
00084E EF?? F???      01813             GOTO    CONTINUA_LCD                        ;RETORNA
                      01814 
                      01815                                     
000852                01816 SAIDA_S                                 ;LCD MENU PRINCIPAL SAIDAS
                      01817             
000852 B245           01818             BTFSC   ENTRA               ;TESTA SE O ENTER FOI PRESSIONADO 
000854 EF?? F???      01819             GOTO    SAIDAS_ENTER        ;SE SIM VAI PARA...
000858 EC?? F???      01820             CALL    LCDCLEAR            ;LIMPA LCD
00085C 0E82           01821             MOVLW   0X82                ;MOVE 0X80 PARA W
00085E EC?? F???      01822             CALL    LCDLOCATE           ;POSICIONA O LCD NA PRIMEIRA LINHA PRIMEIRA COLUNA      
000862 EC?? F???      01823             CALL    LC
000866 EC?? F???      01824             CALL    LO
00086A EC?? F???      01825             CALL    LF
MPASM 5.87                   VAI DAR BOM.ASM   12-15-2020  2:16:19         PAGE 36


LOC  OBJECT CODE     LINE SOURCE TEXT
  VALUE

00086E EC?? F???      01826             CALL    LI
000872 EC?? F???      01827             CALL    LG
000876 EC?? F???      01828             CALL    LU
00087A EC?? F???      01829             CALL    LR
00087E EC?? F???      01830             CALL    LA
000882 EC?? F???      01831             CALL    LC
000886 EC?? F???      01832             CALL    LO
00088A EC?? F???      01833             CALL    LE
00088E EC?? F???      01834             CALL    LS
000892 0EC4           01835             MOVLW   0XC4
000894 EC?? F???      01836             CALL    LCDLOCATE
000898 EC?? F???      01837             CALL    LS
00089C EC?? F???      01838             CALL    LA
0008A0 EC?? F???      01839             CALL    LI    
0008A4 EC?? F???      01840             CALL    LD
0008A8 EC?? F???      01841             CALL    LA
0008AC EC?? F???      01842             CALL    LS
0008B0 EF?? F???      01843             GOTO    CONTINUA_LCD
0008B4                01844 SAIDAS_ENTER
                      01845 
0008B4 0E00           01846             MOVLW   H'00'               ;MOVE 0 PARA W
0008B6 1846           01847             XORWF   SELECAO_E,0         ;COMPARA O VALOR DA SELEÇÃO COM W
0008B8 B4D8           01848             BTFSC   STATUS,Z            ;TESTA SE A COMPARAÇÃO DEU 0
0008BA EF?? F???      01849             GOTO   S1                   ;SE SIM VA PARA ...
                      01850             
0008BE 0E01           01851             MOVLW   H'01'               ;MOVE 1 PARA W
0008C0 1846           01852             XORWF   SELECAO_E,0         ;COMPARA O VALOR DA SELEÇÃO COM W
0008C2 B4D8           01853             BTFSC   STATUS,Z            ;TESTA SE A COMPARAÇÃO DEU 0
0008C4 EF?? F???      01854             GOTO    S2                  ;SE SIM VA PARA ...
                      01855             
0008C8 0E02           01856             MOVLW   H'02'               ;MOVE 2 PARA W
0008CA 1846           01857             XORWF   SELECAO_E,0         ;COMPARA O VALOR DA SELEÇÃO COM W
0008CC B4D8           01858             BTFSC   STATUS,Z            ;TESTA SE A COMPARAÇÃO DEU 0
0008CE EF?? F???      01859             GOTO    S3                  ;SE SIM VA PARA ...
                      01860             
0008D2 0E03           01861             MOVLW   H'03'               ;MOVE 3 PARA W
0008D4 1846           01862             XORWF   SELECAO_E,0         ;COMPARA O VALOR DA SELEÇÃO COM W
0008D6 B4D8           01863             BTFSC   STATUS,Z            ;TESTA SE A COMPARAÇÃO DEU 0
0008D8 EF?? F???      01864             GOTO    S1                  ;SE SIM VA PARA ...
                      01865                
                      01866             
0008DC 0EFF           01867             MOVLW   H'FF'               ;MOVE 255 PARA W
0008DE 1846           01868             XORWF   SELECAO_E,0         ;COMPARA O VALOR DA SELEÇÃO COM W
0008E0 B4D8           01869             BTFSC   STATUS,Z            ;TESTA SE A COMPARAÇÃO DEU 0
0008E2 EF?? F???      01870             GOTO    S3                  ;SE SIM VA PARA
                      01871  
                      01872                             
0008E6                01873 S1
                      01874                                         ;TELA DE CONFIGURAÇÃOD E SAIDAS
0008E6 B645           01875             BTFSC       ENTRA_1
0008E8 EF?? F???      01876             GOTO        S1_1
0008EC 0E00           01877             MOVLW       .0
0008EE 6E46           01878             MOVWF       SELECAO_E
MPASM 5.87                   VAI DAR BOM.ASM   12-15-2020  2:16:19         PAGE 37


LOC  OBJECT CODE     LINE SOURCE TEXT
  VALUE

0008F0 EC?? F???      01879             CALL        LCDCLEAR
0008F4 0E83           01880             MOVLW       0X83
0008F6 EC?? F???      01881             CALL        LCDLOCATE
0008FA EC?? F???      01882             CALL        LC
0008FE EC?? F???      01883             CALL        LO
000902 EC?? F???      01884             CALL        LN
000906 EC?? F???      01885             CALL        LF
00090A EC?? F???      01886             CALL        LI
00090E EC?? F???      01887             CALL        LG
000912 EC?? F???      01888             CALL        LU
000916 EC?? F???      01889             CALL        LR
00091A EC?? F???      01890             CALL        LA
00091E EC?? F???      01891             CALL        LC
000922 EC?? F???      01892             CALL        LA
000926 EC?? F???      01893             CALL        LO
00092A EC?? F???      01894             CALL        ESPACO
00092E EC?? F???      01895             CALL        LM
000932 EC?? F???      01896             CALL        LO
000936 EC?? F???      01897             CALL        LT
00093A EC?? F???      01898             CALL        LO
00093E EC?? F???      01899             CALL        LR
000942 0EC0           01900             MOVLW       0XC0
000944 EC?? F???      01901             CALL        LCDLOCATE
000948 EC?? F???      01902             CALL        LS
00094C EC?? F???      01903             CALL        LT
000950 EC?? F???      01904             CALL        LA
000954 EC?? F???      01905             CALL        LT
000958 EC?? F???      01906             CALL        LU
00095C EC?? F???      01907             CALL        LS
000960 0E3A           01908             MOVLW       ":"
000962 EC?? F???      01909             CALL        LCDSENDDATA
000966 AC4A           01910             BTFSS       TRAVA_MOTOR
000968 EC?? F???      01911             CALL        HABILITADO
00096C BC4A           01912             BTFSC       TRAVA_MOTOR
00096E EC?? F???      01913             CALL        DESABILITADO
000972 EC?? F???      01914             CALL    LCDSENDDATA
000976 EF?? F???      01915             GOTO    CONTINUA_LCD
00097A                01916 S1_1
00097A B84A           01917             BTFSC       ENTRA_2
00097C EF?? F???      01918             GOTO        TESTE_ENTRA_1
000980 B62D           01919             BTFSC       CIMA
000982 EC?? F???      01920             CALL        HABILITADO
000986 B42D           01921             BTFSC       BAIXO
000988 EC?? F???      01922             CALL        DESABILITADO
00098C 0EC8           01923             MOVLW       0XC8
00098E EC?? F???      01924             CALL        LCDLOCATE
000992 EF?? F???      01925             GOTO        CONTINUA_LCD
000996                01926 HABILITADO
000996 EC?? F???      01927             CALL    LCDCLEAR
00099A 0E83           01928             MOVLW   0X83
00099C EC?? F???      01929             CALL    LCDLOCATE
0009A0 EC?? F???      01930             CALL    LC
0009A4 EC?? F???      01931             CALL    LO
MPASM 5.87                   VAI DAR BOM.ASM   12-15-2020  2:16:19         PAGE 38


LOC  OBJECT CODE     LINE SOURCE TEXT
  VALUE

0009A8 EC?? F???      01932             CALL    LN
0009AC EC?? F???      01933             CALL    LF
0009B0 EC?? F???      01934             CALL    LI
0009B4 EC?? F???      01935             CALL    LG
0009B8 EC?? F???      01936             CALL    LU
0009BC EC?? F???      01937             CALL    LR
0009C0 EC?? F???      01938             CALL    LA
0009C4 EC?? F???      01939             CALL    LC
0009C8 EC?? F???      01940             CALL    LA
0009CC EC?? F???      01941             CALL    LO
0009D0 EC?? F???      01942             CALL    ESPACO
0009D4 EC?? F???      01943             CALL    LM
0009D8 EC?? F???      01944             CALL    LO
0009DC EC?? F???      01945             CALL    LT
0009E0 EC?? F???      01946             CALL    LO
0009E4 EC?? F???      01947             CALL    LR
0009E8 0EC0           01948             MOVLW   0XC0
0009EA EC?? F???      01949             CALL    LCDLOCATE
0009EE EC?? F???      01950             CALL    LS
0009F2 EC?? F???      01951             CALL    LT
0009F6 EC?? F???      01952             CALL    LA
0009FA EC?? F???      01953             CALL    LT
0009FE EC?? F???      01954             CALL    LU
000A02 EC?? F???      01955             CALL    LS
000A06 0E3A           01956             MOVLW   ":"
000A08 EC?? F???      01957             CALL    LCDSENDDATA
000A0C EC?? F???      01958             CALL    LCDLOCATE
000A10 EC?? F???      01959             CALL    LA
000A14 EC?? F???      01960             CALL    LT
000A18 EC?? F???      01961             CALL    LI
000A1C EC?? F???      01962             CALL    LV
000A20 EC?? F???      01963             CALL    LO
000A24 9C4A           01964             BCF     TRAVA_MOTOR
000A26 0012           01965             RETURN
                      01966             
000A28                01967 DESABILITADO
000A28 0EC7           01968             MOVLW   0XC7
000A2A EC?? F???      01969             CALL    LCDLOCATE
000A2E EC?? F???      01970             CALL    LD
000A32 EC?? F???      01971             CALL    LE
000A36 EC?? F???      01972             CALL    LS
000A3A EC?? F???      01973             CALL    LA
000A3E EC?? F???      01974             CALL    LT
000A42 EC?? F???      01975             CALL    LI
000A46 EC?? F???      01976             CALL    LV
000A4A EC?? F???      01977             CALL    LO
000A4E 8C4A           01978             BSF     TRAVA_MOTOR
000A50 0012           01979             RETURN
000A52 EF?? F???      01980             GOTO        CONTINUA_LCD
                      01981 
000A56                01982 S2
000A56 EF?? F???      01983             GOTO    TESTE_ENTRA_1
000A5A                01984 S3
MPASM 5.87                   VAI DAR BOM.ASM   12-15-2020  2:16:19         PAGE 39


LOC  OBJECT CODE     LINE SOURCE TEXT
  VALUE

000A5A 0E03           01985             MOVLW   .3
000A5C 6E46           01986             MOVWF   SELECAO_E
000A5E EF?? F???      01987             GOTO    TESTE_ENTRA_1
                      01988 
                      01989                         ;ROTINA PARA MOSTRAR O MENU DE SELECAO DE ENTRADAS
000A62                01990 ENTRADAS_S           ;LCD MENU PRINCIPAL ENTRADAS
000A62 B245           01991             BTFSC   ENTRA               ;TESTA SE O ENTER FOI PRESSIONADO 
000A64 EF?? F???      01992             GOTO    ENTRADAS_ENTER      ;SE SIM VAI PARA...
000A68 EC?? F???      01993             CALL    LCDCLEAR            ;LIMPA LCD
000A6C 0E82           01994             MOVLW   0X82                ;MOVE 0X80 PARA W
000A6E EC?? F???      01995             CALL    LCDLOCATE           ;POSICIONA O LCD NA PRIMEIRA LINHA PRIMEIRA COLUNA      
000A72 EC?? F???      01996             CALL    LC
000A76 EC?? F???      01997             CALL    LO
000A7A EC?? F???      01998             CALL    LF
000A7E EC?? F???      01999             CALL    LI
000A82 EC?? F???      02000             CALL    LG
000A86 EC?? F???      02001             CALL    LU
000A8A EC?? F???      02002             CALL    LR
000A8E EC?? F???      02003             CALL    LA
000A92 EC?? F???      02004             CALL    LC
000A96 EC?? F???      02005             CALL    LO
000A9A EC?? F???      02006             CALL    LE
000A9E EC?? F???      02007             CALL    LS
000AA2 0EC4           02008             MOVLW   0XC4
000AA4 EC?? F???      02009             CALL    LCDLOCATE
000AA8 EC?? F???      02010             CALL    LS
000AAC EC?? F???      02011             CALL    LE
000AB0 EC?? F???      02012             CALL    LN    
000AB4 EC?? F???      02013             CALL    LS
000AB8 EC?? F???      02014             CALL    LO
000ABC EC?? F???      02015             CALL    LR
000AC0 EC?? F???      02016             CALL    LE
000AC4 EC?? F???      02017             CALL    LS
000AC8 EF?? F???      02018             GOTO    CONTINUA_LCD
000ACC                02019 ENTRADAS_ENTER
                      02020             
000ACC 0E00           02021             MOVLW   H'00'               ;MOVE 0 PARA W
000ACE 1846           02022             XORWF   SELECAO_E,0         ;COMPARA O VALOR DA SELEÇÃO COM W
000AD0 B4D8           02023             BTFSC   STATUS,Z
000AD2 EF?? F???      02024             GOTO    TEMP_LCD
                      02025             
000AD6 0E01           02026             MOVLW   H'01'               ;MOVE 1 PARA W
000AD8 1846           02027             XORWF   SELECAO_E,0         ;COMPARA O VALOR DA SELEÇÃO COM W
000ADA B4D8           02028             BTFSC   STATUS,Z            ;TESTA SE A COMPARAÇÃO DEU 0
000ADC EF?? F???      02029             GOTO    UMI_LCD             ;SE SIM VA PARA ...
                      02030             
000AE0 0E02           02031             MOVLW   H'02'               ;MOVE 2 PARA W
000AE2 1846           02032             XORWF   SELECAO_E,0         ;COMPARA O VALOR DA SELEÇÃO COM W
000AE4 B4D8           02033             BTFSC   STATUS,Z            ;TESTA SE A COMPARAÇÃO DEU 0
000AE6 EF?? F???      02034             GOTO    LUMI_LCD            ;SE SIM VA PARA ...
                      02035             
000AEA 0E03           02036             MOVLW   H'03'               ;MOVE 3 PARA W
000AEC 1846           02037             XORWF   SELECAO_E,0         ;COMPARA O VALOR DA SELEÇÃO COM W
MPASM 5.87                   VAI DAR BOM.ASM   12-15-2020  2:16:19         PAGE 40


LOC  OBJECT CODE     LINE SOURCE TEXT
  VALUE

000AEE B4D8           02038             BTFSC   STATUS,Z            ;TESTA SE A COMPARAÇÃO DEU 0
000AF0 EF?? F???      02039             GOTO    TEMP_LCD            ;SE SIM VA PARA ...
                      02040                
                      02041             
000AF4 0EFF           02042             MOVLW   H'FF'               ;MOVE 255 PARA W
000AF6 1846           02043             XORWF   SELECAO_E,0         ;COMPARA O VALOR DA SELEÇÃO COM W
000AF8 B4D8           02044             BTFSC   STATUS,Z            ;TESTA SE A COMPARAÇÃO DEU 0
000AFA EF?? F???      02045             GOTO    LUMI_LCD            ;SE SIM VA PARA
000AFE                02046 TEMP_LCD
000AFE 0E00           02047             MOVLW   .0
000B00 6E46           02048             MOVWF   SELECAO_E
000B02 B645           02049             BTFSC   ENTRA_1
000B04 EF?? F???      02050             GOTO    MUDA_TEMPMAX
000B08 EC?? F???      02051             CALL    LCDCLEAR
000B0C 0E82           02052             MOVLW   0X82
000B0E EC?? F???      02053             CALL    LCDLOCATE
000B12 B645           02054             BTFSC   ENTRA_1
000B14 EF?? F???      02055             GOTO    TESTE_ENTRA_1
000B18 EC?? F???      02056             CALL    LCDLOCATE           ;POSICIONA O LCD NA PRIMEIRA LINHA PRIMEIRA COLUNA      
000B1C EC?? F???      02057             CALL    LT
000B20 EC?? F???      02058             CALL    LE
000B24 EC?? F???      02059             CALL    LM
000B28 EC?? F???      02060             CALL    LP
000B2C EC?? F???      02061             CALL    LE
000B30 EC?? F???      02062             CALL    LR
000B34 EC?? F???      02063             CALL    LA
000B38 EC?? F???      02064             CALL    LT
000B3C EC?? F???      02065             CALL    LU
000B40 EC?? F???      02066             CALL    LR
000B44 EC?? F???      02067             CALL    LA
000B48 EC?? F???      02068             CALL    ESPACO
000B4C 0EC1           02069             MOVLW   0XC1
000B4E EC?? F???      02070             CALL    LCDLOCATE
000B52 EC?? F???      02071             CALL    LM
000B56 EC?? F???      02072             CALL    LA
000B5A EC?? F???      02073             CALL    LX
000B5E 5034           02074             MOVF    TEMP_IDEIAL_MAX,W
000B60 EC?? F???      02075             CALL    TRANFORMA_ASCII
000B64 5044           02076             MOVF    DEZENA,W
000B66 EC?? F???      02077             CALL    LCDSENDDATA
000B6A 5043           02078             MOVF    UNIDADE,W
000B6C EC?? F???      02079             CALL    LCDSENDDATA
000B70 0EC9           02080             MOVLW   0XC9
000B72 EC?? F???      02081             CALL    LCDLOCATE
000B76 EC?? F???      02082             CALL    LM
000B7A EC?? F???      02083             CALL    LI
000B7E EC?? F???      02084             CALL    LN
000B82 5047           02085             MOVF    TEMP_IDEIAL_MIN,W
000B84 EC?? F???      02086             CALL    TRANFORMA_ASCII
000B88 5044           02087             MOVF    DEZENA,W
000B8A EC?? F???      02088             CALL    LCDSENDDATA
000B8E 5043           02089             MOVF    UNIDADE,W
000B90 EC?? F???      02090             CALL    LCDSENDDATA
MPASM 5.87                   VAI DAR BOM.ASM   12-15-2020  2:16:19         PAGE 41


LOC  OBJECT CODE     LINE SOURCE TEXT
  VALUE

000B94 EF?? F???      02091             GOTO    TESTE_ENTRA_1
000B98                02092 MUDA_TEMPMAX
000B98 B84A           02093             BTFSC   ENTRA_2
000B9A EF?? F???      02094             GOTO    MUDA_TEMPMIN
000B9E EC?? F???      02095             CALL    CURSOR_ON
000BA2 B62D           02096             BTFSC   CIMA
000BA4 2A34           02097             INCF    TEMP_IDEIAL_MAX,F
000BA6 B42D           02098             BTFSC   BAIXO
000BA8 0634           02099             DECF    TEMP_IDEIAL_MAX,F
000BAA 0EC4           02100             MOVLW   0XC4
000BAC EC?? F???      02101             CALL    LCDLOCATE
000BB0 5034           02102             MOVF    TEMP_IDEIAL_MAX,W
000BB2 EC?? F???      02103             CALL    TRANFORMA_ASCII
000BB6 5044           02104             MOVF    DEZENA,W
000BB8 EC?? F???      02105             CALL    LCDSENDDATA
000BBC 5043           02106             MOVF    UNIDADE,W
000BBE EC?? F???      02107             CALL    LCDSENDDATA
000BC2 0EC5           02108             MOVLW   0XC5
000BC4 EC?? F???      02109             CALL    LCDLOCATE
000BC8 EC?? F???      02110             CALL    CURSOR_ON
000BCC EF?? F???      02111             GOTO    CONTINUA_LCD
                      02112             
                      02113             
                      02114             
                      02115             
000BD0                02116 MUDA_TEMPMIN       
000BD0 BA4A           02117             BTFSC   ENTRA_3
000BD2 EF?? F???      02118             GOTO    TESTE_ENTRA_1
000BD6 EC?? F???      02119             CALL    CURSOR_ON
000BDA B62D           02120             BTFSC   CIMA
000BDC 2A47           02121             INCF    TEMP_IDEIAL_MIN,F
000BDE B42D           02122             BTFSC   BAIXO
000BE0 0647           02123             DECF    TEMP_IDEIAL_MIN,F
000BE2 0ECC           02124             MOVLW   0XCC
000BE4 EC?? F???      02125             CALL    LCDLOCATE
000BE8 5047           02126             MOVF    TEMP_IDEIAL_MIN,W
000BEA EC?? F???      02127             CALL    TRANFORMA_ASCII
000BEE 5044           02128             MOVF    DEZENA,W
000BF0 EC?? F???      02129             CALL    LCDSENDDATA
000BF4 5043           02130             MOVF    UNIDADE,W
000BF6 EC?? F???      02131             CALL    LCDSENDDATA
000BFA 0ECD           02132             MOVLW   0XCD
000BFC EC?? F???      02133             CALL    LCDLOCATE
000C00 EC?? F???      02134             CALL    CURSOR_ON
000C04 EF?? F???      02135             GOTO    CONTINUA_LCD
                      02136             
                      02137             
000C08 EF?? F???      02138             GOTO    TESTE_ENTRA_1
000C0C                02139 UMI_LCD  
                      02140             
000C0C B645           02141             BTFSC   ENTRA_1
000C0E EF?? F???      02142             GOTO    MUDA_UMIMAX
000C12 EC?? F???      02143             CALL    LCDCLEAR
MPASM 5.87                   VAI DAR BOM.ASM   12-15-2020  2:16:19         PAGE 42


LOC  OBJECT CODE     LINE SOURCE TEXT
  VALUE

000C16 0E83           02144             MOVLW   0X83
000C18 EC?? F???      02145             CALL    LCDLOCATE
000C1C B645           02146             BTFSC   ENTRA_1
000C1E EF?? F???      02147             GOTO    TESTE_ENTRA_1
000C22 EC?? F???      02148             CALL    LCDLOCATE           ;POSICIONA O LCD NA PRIMEIRA LINHA PRIMEIRA COLUNA      
000C26 EC?? F???      02149             CALL    LU
000C2A EC?? F???      02150             CALL    LM
000C2E EC?? F???      02151             CALL    LI
000C32 EC?? F???      02152             CALL    LD
000C36 EC?? F???      02153             CALL    LA
000C3A EC?? F???      02154             CALL    LD
000C3E EC?? F???      02155             CALL    LE
000C42 EC?? F???      02156             CALL    ESPACO
000C46 0EC1           02157             MOVLW   0XC1
000C48 EC?? F???      02158             CALL    LCDLOCATE
000C4C EC?? F???      02159             CALL    LM
000C50 EC?? F???      02160             CALL    LA
000C54 EC?? F???      02161             CALL    LX
000C58 5035           02162             MOVF    UMID_IDEIAL_MAX,W
000C5A EC?? F???      02163             CALL    TRANFORMA_ASCII
000C5E 5044           02164             MOVF    DEZENA,W
000C60 EC?? F???      02165             CALL    LCDSENDDATA
000C64 5043           02166             MOVF    UNIDADE,W
000C66 EC?? F???      02167             CALL    LCDSENDDATA
000C6A 0EC9           02168             MOVLW   0XC9
000C6C EC?? F???      02169             CALL    LCDLOCATE
000C70 EC?? F???      02170             CALL    LM
000C74 EC?? F???      02171             CALL    LI
000C78 EC?? F???      02172             CALL    LN
000C7C 5048           02173             MOVF    UMID_IDEIAL_MIN,W
000C7E EC?? F???      02174             CALL    TRANFORMA_ASCII
000C82 5044           02175             MOVF    DEZENA,W
000C84 EC?? F???      02176             CALL    LCDSENDDATA
000C88 5043           02177             MOVF    UNIDADE,W
000C8A EC?? F???      02178             CALL    LCDSENDDATA
000C8E EF?? F???      02179             GOTO    TESTE_ENTRA_1
000C92                02180 MUDA_UMIMAX
000C92 B84A           02181             BTFSC   ENTRA_2
000C94 EF?? F???      02182             GOTO    MUDA_UMIMIN
000C98 EC?? F???      02183             CALL    CURSOR_ON
000C9C B62D           02184             BTFSC   CIMA
000C9E 2A35           02185             INCF    UMID_IDEIAL_MAX,F
000CA0 B42D           02186             BTFSC   BAIXO
000CA2 0635           02187             DECF    UMID_IDEIAL_MAX,F
000CA4 0EC4           02188             MOVLW   0XC4
000CA6 EC?? F???      02189             CALL    LCDLOCATE
000CAA 5035           02190             MOVF    UMID_IDEIAL_MAX,W
000CAC EC?? F???      02191             CALL    TRANFORMA_ASCII
000CB0 5044           02192             MOVF    DEZENA,W
000CB2 EC?? F???      02193             CALL    LCDSENDDATA
000CB6 5043           02194             MOVF    UNIDADE,W
000CB8 EC?? F???      02195             CALL    LCDSENDDATA
000CBC 0EC5           02196             MOVLW   0XC5
MPASM 5.87                   VAI DAR BOM.ASM   12-15-2020  2:16:19         PAGE 43


LOC  OBJECT CODE     LINE SOURCE TEXT
  VALUE

000CBE EC?? F???      02197             CALL    LCDLOCATE
000CC2 EC?? F???      02198             CALL    CURSOR_ON
000CC6 EF?? F???      02199             GOTO    CONTINUA_LCD
                      02200             
                      02201             
                      02202             
                      02203             
000CCA                02204 MUDA_UMIMIN        
000CCA BA4A           02205             BTFSC   ENTRA_3
000CCC EF?? F???      02206             GOTO    TESTE_ENTRA_1
000CD0 EC?? F???      02207             CALL    CURSOR_ON
000CD4 B62D           02208             BTFSC   CIMA
000CD6 2A48           02209             INCF    UMID_IDEIAL_MIN,F
000CD8 B42D           02210             BTFSC   BAIXO
000CDA 0648           02211             DECF    UMID_IDEIAL_MIN,F
000CDC 0ECC           02212             MOVLW   0XCC
000CDE EC?? F???      02213             CALL    LCDLOCATE
000CE2 5048           02214             MOVF    UMID_IDEIAL_MIN,W
000CE4 EC?? F???      02215             CALL    TRANFORMA_ASCII
000CE8 5044           02216             MOVF    DEZENA,W
000CEA EC?? F???      02217             CALL    LCDSENDDATA
000CEE 5043           02218             MOVF    UNIDADE,W
000CF0 EC?? F???      02219             CALL    LCDSENDDATA
000CF4 0ECD           02220             MOVLW   0XCD
000CF6 EC?? F???      02221             CALL    LCDLOCATE
000CFA EC?? F???      02222             CALL    CURSOR_ON
000CFE EF?? F???      02223             GOTO    CONTINUA_LCD
                      02224             
000D02                02225 LUMI_LCD
000D02 0E02           02226             MOVLW   .2
000D04 6E46           02227             MOVWF   SELECAO_E
000D06 B645           02228             BTFSC   ENTRA_1
000D08 EF?? F???      02229             GOTO    MUDA_LUMIMAX
000D0C EC?? F???      02230             CALL    LCDCLEAR
000D10 0E82           02231             MOVLW   0X82
000D12 EC?? F???      02232             CALL    LCDLOCATE
000D16 B645           02233             BTFSC   ENTRA_1
000D18 EF?? F???      02234             GOTO    TESTE_ENTRA_1
000D1C EC?? F???      02235             CALL    LCDLOCATE           ;POSICIONA O LCD NA PRIMEIRA LINHA PRIMEIRA COLUNA      
000D20 EC?? F???      02236             CALL    LL
000D24 EC?? F???      02237             CALL    LU
000D28 EC?? F???      02238             CALL    LM
000D2C EC?? F???      02239             CALL    LI
000D30 EC?? F???      02240             CALL    LN
000D34 EC?? F???      02241             CALL    LO
000D38 EC?? F???      02242             CALL    LS
000D3C EC?? F???      02243             CALL    LI
000D40 EC?? F???      02244             CALL    LD
000D44 EC?? F???      02245             CALL    LA
000D48 EC?? F???      02246             CALL    LD
000D4C EC?? F???      02247             CALL    LE
000D50 EC?? F???      02248             CALL    ESPACO
000D54 0EC1           02249             MOVLW   0XC1
MPASM 5.87                   VAI DAR BOM.ASM   12-15-2020  2:16:19         PAGE 44


LOC  OBJECT CODE     LINE SOURCE TEXT
  VALUE

000D56 EC?? F???      02250             CALL    LCDLOCATE
000D5A EC?? F???      02251             CALL    LM
000D5E EC?? F???      02252             CALL    LA
000D62 EC?? F???      02253             CALL    LX
000D66 5036           02254             MOVF    LUMI_IDEIAL_MAX,W
000D68 EC?? F???      02255             CALL    TRANFORMA_ASCII
000D6C 5044           02256             MOVF    DEZENA,W
000D6E EC?? F???      02257             CALL    LCDSENDDATA
000D72 5043           02258             MOVF    UNIDADE,W
000D74 EC?? F???      02259             CALL    LCDSENDDATA
000D78 0EC9           02260             MOVLW   0XC9
000D7A EC?? F???      02261             CALL    LCDLOCATE
000D7E EC?? F???      02262             CALL    LM
000D82 EC?? F???      02263             CALL    LI
000D86 EC?? F???      02264             CALL    LN
000D8A 5049           02265             MOVF    LUMI_IDEIAL_MIN,W
000D8C EC?? F???      02266             CALL    TRANFORMA_ASCII
000D90 5044           02267             MOVF    DEZENA,W
000D92 EC?? F???      02268             CALL    LCDSENDDATA
000D96 5043           02269             MOVF    UNIDADE,W
000D98 EC?? F???      02270             CALL    LCDSENDDATA
000D9C EF?? F???      02271             GOTO    TESTE_ENTRA_1
000DA0                02272 MUDA_LUMIMAX
000DA0 B84A           02273             BTFSC   ENTRA_2
000DA2 EF?? F???      02274             GOTO    MUDA_LUMIMIN
000DA6 EC?? F???      02275             CALL    CURSOR_ON
000DAA B62D           02276             BTFSC   CIMA
000DAC 2A36           02277             INCF    LUMI_IDEIAL_MAX,F
000DAE B42D           02278             BTFSC   BAIXO
000DB0 0636           02279             DECF    LUMI_IDEIAL_MAX,F
000DB2 0EC4           02280             MOVLW   0XC4
000DB4 EC?? F???      02281             CALL    LCDLOCATE
000DB8 5036           02282             MOVF    LUMI_IDEIAL_MAX,W
000DBA EC?? F???      02283             CALL    TRANFORMA_ASCII
000DBE 5044           02284             MOVF    DEZENA,W
000DC0 EC?? F???      02285             CALL    LCDSENDDATA
000DC4 5043           02286             MOVF    UNIDADE,W
000DC6 EC?? F???      02287             CALL    LCDSENDDATA
000DCA 0EC5           02288             MOVLW   0XC5
000DCC EC?? F???      02289             CALL    LCDLOCATE
000DD0 EC?? F???      02290             CALL    CURSOR_ON
000DD4 EF?? F???      02291             GOTO    CONTINUA_LCD
                      02292             
                      02293             
                      02294             
                      02295             
000DD8                02296 MUDA_LUMIMIN       
000DD8 BA4A           02297             BTFSC   ENTRA_3
000DDA EF?? F???      02298             GOTO    TESTE_ENTRA_1
000DDE EC?? F???      02299             CALL    CURSOR_ON
000DE2 B62D           02300             BTFSC   CIMA
000DE4 2A49           02301             INCF    LUMI_IDEIAL_MIN,F
000DE6 B42D           02302             BTFSC   BAIXO
MPASM 5.87                   VAI DAR BOM.ASM   12-15-2020  2:16:19         PAGE 45


LOC  OBJECT CODE     LINE SOURCE TEXT
  VALUE

000DE8 0649           02303             DECF    LUMI_IDEIAL_MIN,F
000DEA 0ECC           02304             MOVLW   0XCC
000DEC EC?? F???      02305             CALL    LCDLOCATE
000DF0 5049           02306             MOVF    LUMI_IDEIAL_MIN,W
000DF2 EC?? F???      02307             CALL    TRANFORMA_ASCII
000DF6 5044           02308             MOVF    DEZENA,W
000DF8 EC?? F???      02309             CALL    LCDSENDDATA
000DFC 5043           02310             MOVF    UNIDADE,W
000DFE EC?? F???      02311             CALL    LCDSENDDATA
000E02 0ECD           02312             MOVLW   0XCD
000E04 EC?? F???      02313             CALL    LCDLOCATE
000E08 EC?? F???      02314             CALL    CURSOR_ON
000E0C EF?? F???      02315             GOTO    CONTINUA_LCD
000E10                02316 SENSORES                                ;LCD MENU PRINCIPAL SENSORES
000E10 B245           02317             BTFSC   ENTRA               ;TESTA SE O ENTER FOI PRESSIONADO 
000E12 EF?? F???      02318             GOTO    SENSORES_ENTER      ;SE SIM VAI PARA...
000E16 EC?? F???      02319             CALL    LCDCLEAR            ;LIMPA LCD
000E1A 0E83           02320             MOVLW   0X83                ;MOVE 0X80 PARA W
000E1C EC?? F???      02321             CALL    LCDLOCATE           ;POSICIONA O LCD NA PRIMEIRA LINHA PRIMEIRA COLUNA
000E20 EC?? F???      02322             CALL    LM
000E24 EC?? F???      02323             CALL    LE
000E28 EC?? F???      02324             CALL    LD
000E2C EC?? F???      02325             CALL    LI
000E30 EC?? F???      02326             CALL    LC
000E34 EC?? F???      02327             CALL    LO
000E38 EC?? F???      02328             CALL    LE
000E3C EC?? F???      02329             CALL    LS
000E40 0EC3           02330             MOVLW   0XC3                ;MOVE 0X80 PARA W
000E42 EC?? F???      02331             CALL    LCDLOCATE           ;POSICIONA O LCD NA PRIMEIRA LINHA PRIMEIRA COLUNA
000E46 EC?? F???      02332             CALL    LS
000E4A EC?? F???      02333             CALL    LE
000E4E EC?? F???      02334             CALL    LN
000E52 EC?? F???      02335             CALL    LS
000E56 EC?? F???      02336             CALL    LO
000E5A EC?? F???      02337             CALL    LR
000E5E EC?? F???      02338             CALL    LE
000E62 EC?? F???      02339             CALL    LS
000E66 EF?? F???      02340             GOTO    CONTINUA_LCD
000E6A                02341 SENSORES_ENTER
000E6A 0E00           02342             MOVLW   H'00'               ;MOVE 0 PARA W
000E6C 1846           02343             XORWF   SELECAO_E,0         ;COMPARA O VALOR DA SELEÇÃO COM W
000E6E B4D8           02344             BTFSC   STATUS,Z
000E70 EC?? F???      02345             CALL    TEMPERATURA_LCD
                      02346             
000E74 0E01           02347             MOVLW   H'01'               ;MOVE 1 PARA W
000E76 1846           02348             XORWF   SELECAO_E,0         ;COMPARA O VALOR DA SELEÇÃO COM W
000E78 B4D8           02349             BTFSC   STATUS,Z            ;TESTA SE A COMPARAÇÃO DEU 0
000E7A EC?? F???      02350             CALL    UMIDADE_LCD         ;SE SIM VA PARA ...
                      02351             
000E7E 0E02           02352             MOVLW   H'02'               ;MOVE 2 PARA W
000E80 1846           02353             XORWF   SELECAO_E,0         ;COMPARA O VALOR DA SELEÇÃO COM W
000E82 B4D8           02354             BTFSC   STATUS,Z            ;TESTA SE A COMPARAÇÃO DEU 0
000E84 EC?? F???      02355             CALL    LUMINOSIDADE_LCD            ;SE SIM VA PARA ...
MPASM 5.87                   VAI DAR BOM.ASM   12-15-2020  2:16:19         PAGE 46


LOC  OBJECT CODE     LINE SOURCE TEXT
  VALUE

                      02356             
000E88 0E03           02357             MOVLW   H'03'               ;MOVE 3 PARA W
000E8A 1846           02358             XORWF   SELECAO_E,0         ;COMPARA O VALOR DA SELEÇÃO COM W
000E8C B4D8           02359             BTFSC   STATUS,Z            ;TESTA SE A COMPARAÇÃO DEU 0
000E8E EC?? F???      02360             CALL    TEMPERATURA_LCD             ;SE SIM VA PARA ...
                      02361                
                      02362             
000E92 0EFF           02363             MOVLW   H'FF'               ;MOVE 255 PARA W
000E94 1846           02364             XORWF   SELECAO_E,0         ;COMPARA O VALOR DA SELEÇÃO COM W
000E96 B4D8           02365             BTFSC   STATUS,Z            ;TESTA SE A COMPARAÇÃO DEU 0
000E98 EC?? F???      02366             CALL    LUMINOSIDADE_LCD            ;SE SIM VA PARA
                      02367  
000E9C B645           02368             BTFSC   ENTRA_1
000E9E EF?? F???      02369             GOTO    LIMPA_ENTRA
000EA2 EF?? F???      02370             GOTO    CONTINUA_LCD
                      02371             
000EA6                02372 TEMPERATURA_LCD 
                      02373             
000EA6 0E00           02374             MOVLW   .0
000EA8 6E46           02375             MOVWF   SELECAO_E
000EAA EC?? F???      02376             CALL    LCDCLEAR
000EAE 0E81           02377             MOVLW   0X81                ;MOVE 0X81 PARA W
000EB0 EC?? F???      02378             CALL    LCDLOCATE           ;POSICIONA O LCD NA PRIMEIRA LINHA PRIMEIRA COLUNA
000EB4 EC?? F???      02379             CALL    LT
000EB8 EC?? F???      02380             CALL    LE
000EBC EC?? F???      02381             CALL    LM 
000EC0 EC?? F???      02382             CALL    LP
000EC4 EC?? F???      02383             CALL    LE
000EC8 EC?? F???      02384             CALL    LR
000ECC EC?? F???      02385             CALL    LA
000ED0 EC?? F???      02386             CALL    LT
000ED4 EC?? F???      02387             CALL    LU
000ED8 EC?? F???      02388             CALL    LR
000EDC EC?? F???      02389             CALL    LA
000EE0 0E3A           02390             MOVLW   ":" 
                      02391             
000EE2 EC?? F???      02392             CALL    LCDSENDDATA
000EE6 5033           02393             MOVF    TEMPERATURA,W
000EE8 EC?? F???      02394             CALL    TRANFORMA_ASCII
000EEC 5044           02395             MOVF    DEZENA,W
000EEE EC?? F???      02396             CALL    LCDSENDDATA
000EF2 5043           02397             MOVF    UNIDADE,W
000EF4 EC?? F???      02398             CALL    LCDSENDDATA
000EF8 0E43           02399             MOVLW   "C"
000EFA EC?? F???      02400             CALL    LCDSENDDATA
000EFE EF?? F???      02401             GOTO    TESTE_ENTRA_1
000F02                02402 UMIDADE_LCD
                      02403             
000F02 0E01           02404             MOVLW   .1
000F04 6E46           02405             MOVWF   SELECAO_E
000F06 EC?? F???      02406             CALL    LCDCLEAR
000F0A 0E81           02407             MOVLW   0X81                ;MOVE 0X81 PARA W
000F0C EC?? F???      02408             CALL    LCDLOCATE           ;POSICIONA O LCD NA PRIMEIRA LINHA PRIMEIRA COLUNA
MPASM 5.87                   VAI DAR BOM.ASM   12-15-2020  2:16:19         PAGE 47


LOC  OBJECT CODE     LINE SOURCE TEXT
  VALUE

000F10 EC?? F???      02409             CALL    LU
000F14 EC?? F???      02410             CALL    LM
000F18 EC?? F???      02411             CALL    LI 
000F1C EC?? F???      02412             CALL    LD
000F20 EC?? F???      02413             CALL    LA
000F24 EC?? F???      02414             CALL    LD
000F28 EC?? F???      02415             CALL    LE
000F2C 0E3A           02416             MOVLW   ":" 
000F2E EC?? F???      02417             CALL    LCDSENDDATA
000F32 0EC0           02418             MOVLW   0XC0                ;MOVE 0X81 PARA W
000F34 EC?? F???      02419             CALL    LCDLOCATE           ;POSICIONA O LCD NA PRIMEIRA LINHA PRIMEIRA COLUNA
000F38 5031           02420             MOVF    UMIDADE,W           ;MOVE UMIDADE PARA W
000F3A EC?? F???      02421             CALL    TRANFORMA_ASCII     ;TRANFORMA O VALOR DE UMIDADE PRA ASCII
000F3E 5044           02422             MOVF    DEZENA,W            ;CARREGA W COM VALOR DE DEZENA
000F40 EC?? F???      02423             CALL    LCDSENDDATA         ;ENVIA W PARA O LCD
000F44 5043           02424             MOVF    UNIDADE,W           ;CARREGA W COM VALOR DE UNIDADE
000F46 EC?? F???      02425             CALL    LCDSENDDATA         ;ENVIA W PARA O LCD
000F4A 0E25           02426             MOVLW   "%"                 ;CARREGA W COM %
000F4C EC?? F???      02427             CALL    LCDSENDDATA         ;ENVIA W PARA O LCD
000F50 EF?? F???      02428             GOTO    TESTE_ENTRA_1       ; VA PARA 
000F54                02429 LUMINOSIDADE_LCD
                      02430             
000F54 0E02           02431             MOVLW   .2
000F56 6E46           02432             MOVWF   SELECAO_E
000F58 EC?? F???      02433             CALL    LCDCLEAR
000F5C 0E81           02434             MOVLW   0X81                ;MOVE 0X81 PARA W
000F5E EC?? F???      02435             CALL    LCDLOCATE           ;POSICIONA O LCD NA PRIMEIRA LINHA PRIMEIRA COLUNA
000F62 EC?? F???      02436             CALL    LL
000F66 EC?? F???      02437             CALL    LU
000F6A EC?? F???      02438             CALL    LM 
000F6E EC?? F???      02439             CALL    LI
000F72 EC?? F???      02440             CALL    LN
000F76 EC?? F???      02441             CALL    LO
000F7A EC?? F???      02442             CALL    LS
000F7E EC?? F???      02443             CALL    LI
000F82 EC?? F???      02444             CALL    LD
000F86 EC?? F???      02445             CALL    LA
000F8A EC?? F???      02446             CALL    LD
000F8E EC?? F???      02447             CALL    LE
000F92 0E3A           02448             MOVLW   ":" 
000F94 EC?? F???      02449             CALL    LCDSENDDATA
000F98 5032           02450             MOVF    LUMINOSIDADE,W
000F9A EC?? F???      02451             CALL    TRANFORMA_ASCII
000F9E 5044           02452             MOVF    DEZENA,W            ;CARREGA W COM VALOR DE DEZENA
000FA0 EC?? F???      02453             CALL    LCDSENDDATA         ;ENVIA W PARA O LCD
000FA4 5043           02454             MOVF    UNIDADE,W           ;CARREGA W COM VALOR DE UNIDADE
000FA6 EC?? F???      02455             CALL    LCDSENDDATA         ;ENVIA W PARA O LCD
000FAA 0E25           02456             MOVLW   "%"
000FAC EC?? F???      02457             CALL    LCDSENDDATA
000FB0 EF?? F???      02458             GOTO    TESTE_ENTRA_1
000FB4                02459 ALFACE_LCD                  ;LCD MENU AUXILIAR DA SELEÇÃO PLANTAÇÃO
000FB4 0EC0           02460             MOVLW   0XC0
000FB6 EC?? F???      02461             CALL    LCDLOCATE
MPASM 5.87                   VAI DAR BOM.ASM   12-15-2020  2:16:19         PAGE 48


LOC  OBJECT CODE     LINE SOURCE TEXT
  VALUE

000FBA EC?? F???      02462             CALL    LA
000FBE EC?? F???      02463             CALL    LL
000FC2 EC?? F???      02464             CALL    LF
000FC6 EC?? F???      02465             CALL    LA
000FCA EC?? F???      02466             CALL    LC
000FCE EC?? F???      02467             CALL    LE
000FD2 0E00           02468             MOVLW   .0
000FD4 6E46           02469             MOVWF   SELECAO_E
000FD6 B645           02470             BTFSC    ENTRA_1
000FD8 EC?? F???      02471             CALL     ALFACE
000FDC EF?? F???      02472             GOTO    TESTE_ENTRA_1
000FE0                02473 CEBOLINHA_LCD               ;LCD MENU AUXILIAR DA SELEÇÃO PLANTAÇÃO
000FE0 0EC0           02474             MOVLW   0XC0
000FE2 EC?? F???      02475             CALL    LCDLOCATE
000FE6 EC?? F???      02476             CALL    LC
000FEA EC?? F???      02477             CALL    LE
000FEE EC?? F???      02478             CALL    LB
000FF2 EC?? F???      02479             CALL    LO
000FF6 EC?? F???      02480             CALL    LL
000FFA EC?? F???      02481             CALL    LI
000FFE EC?? F???      02482             CALL    LN
001002 EC?? F???      02483             CALL    LH
001006 EC?? F???      02484             CALL    LA
00100A B645           02485             BTFSC    ENTRA_1
00100C EC?? F???      02486             CALL     CEBOLINHA
001010 EF?? F???      02487             GOTO    TESTE_ENTRA_1
001014                02488 SALSINHA_LCD                ;LCD MENU AUXILIAR DA SELEÇÃO PLANTAÇÃO
001014 0E02           02489             MOVLW   .2
001016 6E46           02490             MOVWF   SELECAO_E       ;ROTINA PARA MOSTRAR O MENU DE SELECAO DE SAIDAS
001018 0EC0           02491             MOVLW   0XC0
00101A EC?? F???      02492             CALL    LCDLOCATE
00101E EC?? F???      02493             CALL    LS
001022 EC?? F???      02494             CALL    LA
001026 EC?? F???      02495             CALL    LL
00102A EC?? F???      02496             CALL    LS
00102E EC?? F???      02497             CALL    LI
001032 EC?? F???      02498             CALL    LN
001036 EC?? F???      02499             CALL    LH
00103A EC?? F???      02500             CALL    LA
00103E B645           02501             BTFSC   ENTRA_1
001040 EC?? F???      02502             CALL    SALSINHA
001044 EF?? F???      02503             GOTO    TESTE_ENTRA_1
                      02504             ;ROTINA PARA INCREMENTAR A VARIAVEL SELECAO
001048                02505 INC_            
001048 B645           02506             BTFSC   ENTRA_1                 ;TESTE SE A FLAG ESTA ACIONADA
00104A EF?? F???      02507             GOTO    INC_ENTRA_1             ;VA PARA
00104E B245           02508             BTFSC   ENTRA                   ;TESTE SE A FLAG ESTA ACIONADA
001050 EF?? F???      02509             GOTO    INC_ENTRA               ; VA PARA 
001054 2A3A           02510             INCF    SELECAO
001056 0012           02511             RETURN
                      02512             ;ROTINA PARA DECREMENTAR A VARIAVEL SELECAO
001058                02513 DEC_        
001058 B645           02514             BTFSC   ENTRA_1                ;TESTE SE A FLAG ESTA ACIONADA
MPASM 5.87                   VAI DAR BOM.ASM   12-15-2020  2:16:19         PAGE 49


LOC  OBJECT CODE     LINE SOURCE TEXT
  VALUE

00105A EF?? F???      02515             GOTO    DEC_ENTRA_1             ;VA PARA 
00105E B245           02516             BTFSC   ENTRA                  ;TESTE SE A FLAG ESTA ACIONADA
001060 EF?? F???      02517             GOTO    DEC_ENTRA               ;VA PARA 
001064 063A           02518             DECF    SELECAO                ;DECREMENTA SELECAO 
001066 0012           02519             RETURN
                      02520             
001068                02521 INC_ENTRA
001068 2A46           02522             INCF    SELECAO_E
00106A 0012           02523             RETURN
                      02524             
00106C                02525 DEC_ENTRA
00106C 0646           02526             DECF    SELECAO_E
00106E 0012           02527             RETURN
001070                02528 INC_ENTRA_1
001070 0012           02529             RETURN
001072                02530 DEC_ENTRA_1
001072 0012           02531             RETURN
                      02532             ;ROTINA PARA ALTERAR INFORMAÇOES NOS MENUS
001074                02533 SELECT_E
001074 B84A           02534             BTFSC   ENTRA_2             ;TESTE SE A FLAG ESTA ACIONADA
001076 8A4A           02535             BSF     ENTRA_3
001078 B645           02536             BTFSC   ENTRA_1             ;TESTE SE A FLAG ESTA ACIONADA
00107A 884A           02537             BSF     ENTRA_2
00107C B245           02538             BTFSC   ENTRA               ;TESTE SE A FLAG ESTA ACIONADA
00107E 8645           02539             BSF     ENTRA_1
001080 8245           02540             BSF     ENTRA
                      02541         
001082 0012           02542             RETURN
001084                02543 SELECT_S
001084 9245           02544             BCF     ENTRA
001086 984A           02545             BCF     ENTRA_2
001088 9A4A           02546             BCF     ENTRA_3
00108A 9645           02547             BCF     ENTRA_1
00108C EC?? F???      02548             CALL    CURSOR_OFF
001090 0012           02549             RETURN
                      02550             ;ROTINA PARA NÃO DEIXAR O VALOR DE SELECAO SAIR DO ESPERADO
001092                02551 R_SELECAO
001092 0E04           02552             MOVLW   H'04'           ;MOVE   4 PARA W
001094 6E3A           02553             MOVWF   SELECAO         ;MOVE PRA A VARIAVEL SELECAO
001096 EF?? F???      02554             GOTO    SENSORES        ;VA PARA SENSORES
00109A 0012           02555             RETURN                  ;RETORNA
                      02556             
                      02557             
                      02558             
                      02559             
                      02560             
                      02561             
                      02562             
                      02563             
                      02564 ;******************************************************************************
                      02565 ;                   ROTINAS PRONTAS  DOS LIVRO      
                      02566 ;******************************************************************************
                      02567             
MPASM 5.87                   VAI DAR BOM.ASM   12-15-2020  2:16:19         PAGE 50


LOC  OBJECT CODE     LINE SOURCE TEXT
  VALUE

                      02568             
                      02569 ;******************************************************************************
                      02570 ; SUBROTINAS PARA ESCRITA EM LCD 16X2, COMUNICACAO A 4 BITS
                      02571 ; COMANDOS USADOS
                      02572 ; CALL  INICIALIZA_LCD  ;INICIALIZACAO DO LCD
                      02573 ;******************************************************************************
00109C                02574 INICIALIZA_LCD
00109C 0E32           02575             MOVLW       .50
00109E EC?? F???      02576             CALL    DELAY_MS
                      02577 ;******************************************************************************
                      02578 ; SEQUENCIA DE RESET 
                      02579 ;******************************************************************************
0010A2 9483           02580             BCF     LCD_RS    ;ENTRA NO MODO DE COMANDO
                      02581 ;ENVIA A SEQUENCIA DE RESET AO LCD
0010A4 8883           02582             BSF     LCD_DB4
0010A6 8A83           02583             BSF     LCD_DB5
0010A8 9C83           02584             BCF     LCD_DB6
0010AA 9E83           02585             BCF     LCD_DB7
0010AC 8683           02586             BSF     LCD_E     ;ENABLES LCD
0010AE 0E05           02587             MOVLW   5         ;WAIT 5 MS
0010B0 EC?? F???      02588             CALL    DELAY_MS
0010B4 9683           02589             BCF     LCD_E     ;DISABLES LCD
0010B6 0E01           02590             MOVLW   1         ;WAIT 1MS
0010B8 EC?? F???      02591             CALL    DELAY_MS
0010BC 8683           02592             BSF     LCD_E     ;ENABLES LCD
0010BE 0E01           02593             MOVLW   1         ;WAIT 1MS
0010C0 EC?? F???      02594             CALL    DELAY_MS
0010C4 9683           02595             BCF     LCD_E     ;DISABLES LCD
0010C6 0E01           02596             MOVLW   1         ;WAIT 1MS
0010C8 EC?? F???      02597             CALL    DELAY_MS
0010CC 8683           02598             BSF     LCD_E     ;ENABLES E
0010CE 0E01           02599             MOVLW   1         ;WAIT 1MS
0010D0 EC?? F???      02600             CALL    DELAY_MS
0010D4 9683           02601             BCF     LCD_E     ;DISABLES E
0010D6 0E01           02602             MOVLW   1         ;WAIT 1MS
0010D8 EC?? F???      02603             CALL    DELAY_MS
0010DC 9883           02604             BCF     LCD_DB4
0010DE 8A83           02605             BSF     LCD_DB5
0010E0 9C83           02606             BCF     LCD_DB6
0010E2 9E83           02607             BCF     LCD_DB7
0010E4 8683           02608             BSF     LCD_E     ;ENABLES LCD
0010E6 0E01           02609             MOVLW   1         ;WAIT 1MS
0010E8 EC?? F???      02610             CALL    DELAY_MS
0010EC 9683           02611             BCF     LCD_E     ;DISABLED LCD
0010EE 0E01           02612             MOVLW   1         ;WAIT 1MS
0010F0 EC?? F???      02613             CALL    DELAY_MS
                      02614 ;******************************************************************************
                      02615 ;CONFIGURA PARA COMUNICAÇÃO DE 4 BITS
                      02616 ;******************************************************************************
0010F4 0E28           02617             MOVLW   28H
0010F6 EC?? F???      02618             CALL    LCDSENDCOMMAND
                      02619 
                      02620 ; ESCOLHER UM MODO MARA INICIALIZAÇÃO PADRAO
MPASM 5.87                   VAI DAR BOM.ASM   12-15-2020  2:16:19         PAGE 51


LOC  OBJECT CODE     LINE SOURCE TEXT
  VALUE

                      02621         
0010FA EC?? F???      02622             CALL        LCD_CURSOR_DIR
0010FE EC?? F???      02623             CALL        CURSOR_OFF
001102 0012           02624             RETURN
                      02625         
                      02626 ;******************************************************************************
                      02627 ;CONFIGURACOES DO LCD
                      02628 ;****************************************************************************** 
001104                02629 LCD_ON          
001104 0E0C           02630             MOVLW   0CH;
001106 EC?? F???      02631             CALL    LCDSENDCOMMAND
00110A 0012           02632             RETURN
00110C                02633 LCD_OFF         
00110C 0E08           02634             MOVLW   08H;
00110E EC?? F???      02635             CALL    LCDSENDCOMMAND
001112 0012           02636             RETURN
                      02637         
                      02638 ;******************************************************************************
                      02639 ;CONFIGURACOES DO CURSOR
                      02640 ;****************************************************************************** 
                      02641 
                      02642 ;****************************************************************************** 
                      02643 ; SENTIDO DE DESLOCAMENTO DO CURSOR COM A ENTRADA DE UM NOVO CARACTER
                      02644 ;******************************************************************************
                      02645 ; AO ENTRAR NOVO CARACTER DESLOCA CURSOR A DIREIRA
001114                02646 LCD_CURSOR_DIR          
001114 0E06           02647             MOVLW   06H;
001116 EC?? F???      02648             CALL    LCDSENDCOMMAND
00111A 0012           02649             RETURN
                      02650 ; AO ENTRAR NOVO CARACTER DESLOCA CURSOR A ESQUERDA
00111C                02651 LCD_CURSOR_ESQ          
00111C 0E04           02652             MOVLW   04H;
00111E EC?? F???      02653             CALL    LCDSENDCOMMAND
001122 0012           02654             RETURN
                      02655         
                      02656 ;****************************************************************************** 
                      02657 ; SENTIDO DE DESLOCAMENTO DO TEXTO COM A ENTRADA DE UM NOVO CARACTER
                      02658 ;******************************************************************************
                      02659 ; AO ENTRAR NOVO CARACTER DESLOCA O TEXTO A DIREIRA
001124                02660 LCD_TEXTO_DIR           
001124 0E05           02661             MOVLW   05H;
001126 EC?? F???      02662             CALL    LCDSENDCOMMAND
00112A 0012           02663             RETURN
                      02664 ; AO ENTRAR NOVO CARACTER DESLOCA O TEXTO A ESQUERDA
00112C                02665 LCD_TEXTO_ESQ           
00112C 0E07           02666             MOVLW   07H;
00112E EC?? F???      02667             CALL    LCDSENDCOMMAND
001132 0012           02668             RETURN
                      02669 ;****************************************************************************** 
                      02670 ; SENTIDO DE DESLOCAMENTO DO TEXTO SEM A ENTRADA DE UM NOVO CARACTER
                      02671 ;******************************************************************************
                      02672 ; DESLOCA O TEXTO A DIREIRA
001134                02673 TEXTO_DIR               
MPASM 5.87                   VAI DAR BOM.ASM   12-15-2020  2:16:19         PAGE 52


LOC  OBJECT CODE     LINE SOURCE TEXT
  VALUE

001134 0E1C           02674             MOVLW   1CH;
001136 EC?? F???      02675             CALL    LCDSENDCOMMAND
00113A 0012           02676             RETURN
                      02677 ; DESLOCA O TEXTO A ESQUERDA
00113C                02678 TEXTO_ESQ               
00113C 0E18           02679             MOVLW   18H;
00113E EC?? F???      02680             CALL    LCDSENDCOMMAND
001142 0012           02681             RETURN
                      02682 ;****************************************************************************** 
                      02683 ; CONTROLE DO CURSOR 
                      02684 ;******************************************************************************
                      02685 
001144                02686 CURSOR_OFF
                      02687             ;DISPLAY ON, CURSON OFF, BLINK OFF   
001144 0E0C           02688             MOVLW   0CH 
001146 EC?? F???      02689             CALL    LCDSENDCOMMAND
00114A 0012           02690             RETURN
00114C                02691 CURSOR_ON
                      02692             ;DISPLAY ON, CURSON ON, BLINK OFF   
00114C 0E0E           02693             MOVLW   0EH 
00114E EC?? F???      02694             CALL    LCDSENDCOMMAND
001152 0012           02695             RETURN
001154                02696 CURSOR_BLINK
                      02697             ;DISPLAY ON, CURSON OFF, BLINK ON   
001154 0E0D           02698             MOVLW   0DH 
001156 EC?? F???      02699             CALL    LCDSENDCOMMAND
00115A 0012           02700             RETURN
00115C                02701 CURSOR_ALTERNADO
                      02702             ;DISPLAY ON, CURSON ON, BLINK ON   
00115C 0E0F           02703             MOVLW   0FH 
00115E EC?? F???      02704             CALL    LCDSENDCOMMAND
001162 0012           02705             RETURN
001164                02706 CURSOR_DIR
                      02707         ;DESLOCA O CURSOR A DIREITA   
001164 0E14           02708             MOVLW   14H 
001166 EC?? F???      02709             CALL    LCDSENDCOMMAND
00116A 0012           02710             RETURN
00116C                02711 CURSOR_ESQ
                      02712         ;DESLOCA O CURSOR A ESQUERDA   
00116C 0E10           02713         MOVLW   10H     
00116E EC?? F???      02714         CALL    LCDSENDCOMMAND
001172 0012           02715         RETURN
001174                02716 CURSOR_HOME
                      02717         ;DESLOCA PARA A LINHA 1 COLUNA 1   
001174 0E02           02718             MOVLW   02H 
001176 EC?? F???      02719             CALL    LCDSENDCOMMAND
00117A 0012           02720             RETURN
                      02721 
                      02722 ;**********************************************************************
                      02723 ; CLEAR LCD
                      02724 ;**********************************************************************
                      02725 
00117C                02726 LCDCLEAR
MPASM 5.87                   VAI DAR BOM.ASM   12-15-2020  2:16:19         PAGE 53


LOC  OBJECT CODE     LINE SOURCE TEXT
  VALUE

00117C 0E01           02727             MOVLW   01H
00117E EC?? F???      02728             CALL    LCDSENDCOMMAND
001182 0E02           02729             MOVLW   2               ;WAIT 2 MS
001184 EC?? F???      02730             CALL    DELAY_MS
                      02731 
                      02732             ;DD RAM ADDRESS SET 1ST DIGIT
                      02733 
001188 0E80           02734             MOVLW   80H;
00118A EC?? F???      02735             CALL    LCDSENDCOMMAND
00118E 0012           02736             RETURN
                      02737 
                      02738 ;******************************************************************************
                      02739 ; POSICIONAR CURSOR ON LCD
                      02740 ; W = D7-D4 LINHA, D3-D0 COLUNA
                      02741 ;******************************************************************************
                      02742 ;Tabela com os 32 caracteres do display 16x2 e seus endereços em hexadecimal
                      02743 ;
                      02744 ;Coluna   0  1  2  3  4  5  6  7  8  9 10 11 12 13 14 15 
                      02745 ;Linha 0 80 81 82 83 84 85 86 87 88 89 8A 8B 8C 8D 8E 8F 
                      02746 ;Linha 1 C0 C1 C2 C3 C4 C5 C6 C7 C8 C9 CA CB CC CD CE CF 
                      02747 ;
                      02748 ;Tabela com os 80 caracteres do display 20x4 e seus endereços em hexadecimal
                      02749 ;
                      02750 ;Coluna   0  1  2  3  4  5  6  7  8  9 10 11 12 13 14 15 16 17 18 19
                      02751 ;Linha 0 80 81 82 83 84 85 86 87 88 89 8A 8B 8C 8D 8E 8F 90 91 92 93
                      02752 ;Linha 1 C0 C1 C2 C3 C4 C5 C6 C7 C8 C9 CA CB CC CD CE CF D0 D1 D2 D3
                      02753 ;Linha 2 94 95 96 97 98 99 9A 9B 9C 9D 9E 9F A0 A1 A2 A3 A4 A5 A6 A7
                      02754 ;Linha 3 D4 D5 D6 D7 D8 D9 DA DB DC DD DE DF E0 E1 E2 E3 E4 E5 E6 E7
                      02755 ;
                      02756 ; EXEMPLO 2 LINHA 4 COLUMA C4
                      02757 ;MOVLW  0XC4            ;MOVE O VALOR HEXADECIMAL C4 PARA WORK
                      02758 ;CALL   LCDLOCATE       ;SALTA PARA SUBROTINA DE POSICIONAMENTO DO CURSOR 
                      02759 ;NA SEGUNDA LINHA E QUARTA COLUNA
                      02760 ;**********************************************************************
                      02761 
001190                02762 LCDLOCATE
001190 EC?? F???      02763                 CALL    LCDSENDCOMMAND
001194 0012           02764                 RETURN
                      02765 
                      02766 ;**********************************************************************
                      02767 ;ENVIA DADO PARA O LCD
                      02768 ;**********************************************************************
                      02769 
001196                02770 LCDSENDDATA
001196 8483           02771                 BSF     LCD_RS
001198 EC?? F???      02772                 CALL    LCDSENDBYTE
00119C 0012           02773                 RETURN
                      02774 
                      02775 ;**********************************************************************
                      02776 ;                       ENVIA COMANDO PARA O LCD
                      02777 ;**********************************************************************
                      02778 
00119E                02779 LCDSENDCOMMAND
MPASM 5.87                   VAI DAR BOM.ASM   12-15-2020  2:16:19         PAGE 54


LOC  OBJECT CODE     LINE SOURCE TEXT
  VALUE

00119E 9483           02780                 BCF     LCD_RS
0011A0 EC?? F???      02781                 CALL    LCDSENDBYTE
0011A4 0012           02782                 RETURN
                      02783 
                      02784 ;**********************************************************************
                      02785 ;               ENVIA BYTE ATRAVES DE BARRAMENTO DE 4 VIAS
                      02786 ;**********************************************************************
                      02787 
0011A6                02788 LCDSENDBYTE
                      02789                 ;SAVE VALUE TO SEND
                      02790 
0011A6 6E27           02791             MOVWF   TMPLCDREGISTER       ;SEND HIGHTER FOUR BITS
0011A8 9883           02792             BCF     LCD_DB4
0011AA 9A83           02793             BCF     LCD_DB5
0011AC 9C83           02794             BCF     LCD_DB6
0011AE 9E83           02795             BCF     LCD_DB7
0011B0 B827           02796             BTFSC   TMPLCDREGISTER,4
0011B2 8883           02797             BSF     LCD_DB4
0011B4 BA27           02798             BTFSC   TMPLCDREGISTER,5
0011B6 8A83           02799             BSF     LCD_DB5
0011B8 BC27           02800             BTFSC   TMPLCDREGISTER,6
0011BA 8C83           02801             BSF     LCD_DB6
0011BC BE27           02802             BTFSC   TMPLCDREGISTER,7
0011BE 8E83           02803             BSF     LCD_DB7
0011C0 8683           02804             BSF     LCD_E     ;ENABLES LCD
0011C2 0E01           02805             MOVLW   1               ;WAIT 1MS
0011C4 EC?? F???      02806             CALL    DELAY_MS
0011C8 9683           02807             BCF     LCD_E     ;DISABLED LCD
0011CA 0E01           02808             MOVLW   1               ;WAIT 1MS
0011CC EC?? F???      02809             CALL    DELAY_MS
                      02810 
                      02811             ;SEND LOWER FOUR BITS
                      02812 
0011D0 9883           02813             BCF     LCD_DB4
0011D2 9A83           02814             BCF     LCD_DB5
0011D4 9C83           02815             BCF     LCD_DB6
0011D6 9E83           02816             BCF     LCD_DB7
0011D8 B027           02817             BTFSC   TMPLCDREGISTER,0
0011DA 8883           02818             BSF     LCD_DB4
0011DC B227           02819             BTFSC   TMPLCDREGISTER,1
0011DE 8A83           02820             BSF     LCD_DB5
0011E0 B427           02821             BTFSC   TMPLCDREGISTER,2
0011E2 8C83           02822             BSF     LCD_DB6
0011E4 B627           02823             BTFSC   TMPLCDREGISTER,3
0011E6 8E83           02824             BSF     LCD_DB7
0011E8 8683           02825             BSF     LCD_E                           ;ENABLES LCD
0011EA 0E01           02826             MOVLW   1                       ;WAIT 1MS
0011EC EC?? F???      02827             CALL    DELAY_MS
0011F0 9683           02828             BCF     LCD_E                           ;DISABLED LCD
0011F2 0E01           02829             MOVLW   1                   ;WAIT 1MS
0011F4 EC?? F???      02830             CALL    DELAY_MS
0011F8 0012           02831             RETURN
                      02832                 
MPASM 5.87                   VAI DAR BOM.ASM   12-15-2020  2:16:19         PAGE 55


LOC  OBJECT CODE     LINE SOURCE TEXT
  VALUE

                      02833 
                      02834 ;*******************************************************************************
                      02835 ;                           ALFABETO
                      02836 ;*******************************************************************************
0011FA                02837 LA      
0011FA 0E41           02838             MOVLW       'A'                     ;ENVIA O CARACTER PARA O WORK
0011FC EC?? F???      02839             CALL        LCDSENDDATA             ;SALTA PARA SUBROTINA DE ESCRITA NO LCD
001200 0012           02840             RETURN
001202                02841 LB      
001202 0E42           02842             MOVLW       'B'                     ;ENVIA O CARACTER PARA O WORK
001204 EC?? F???      02843             CALL        LCDSENDDATA             ;SALTA PARA SUBROTINA DE ESCRITA NO LCD
001208 0012           02844             RETURN
00120A                02845 LC      
00120A 0E43           02846             MOVLW       'C'                     ;ENVIA O CARACTER PARA O WORK
00120C EC?? F???      02847             CALL        LCDSENDDATA             ;SALTA PARA SUBROTINA DE ESCRITA NO LCD
001210 0012           02848             RETURN
001212                02849 LD      
001212 0E44           02850             MOVLW       'D'                     ;ENVIA O CARACTER PARA O WORK
001214 EC?? F???      02851             CALL        LCDSENDDATA             ;SALTA PARA SUBROTINA DE ESCRITA NO LCD
001218 0012           02852             RETURN
00121A                02853 LE      
00121A 0E45           02854             MOVLW       'E'                     ;ENVIA O CARACTER PARA O WORK
00121C EC?? F???      02855             CALL        LCDSENDDATA             ;SALTA PARA SUBROTINA DE ESCRITA NO LCD
001220 0012           02856             RETURN
001222                02857 LF      
001222 0E46           02858             MOVLW       'F'                     ;ENVIA O CARACTER PARA O WORK
001224 EC?? F???      02859             CALL        LCDSENDDATA             ;SALTA PARA SUBROTINA DE ESCRITA NO LCD
001228 0012           02860             RETURN
00122A                02861 LG      
00122A 0E47           02862             MOVLW       'G'                     ;ENVIA O CARACTER PARA O WORK
00122C EC?? F???      02863             CALL        LCDSENDDATA             ;SALTA PARA SUBROTINA DE ESCRITA NO LCD
001230 0012           02864             RETURN
001232                02865 LH      
001232 0E48           02866             MOVLW       'H'                     ;ENVIA O CARACTER PARA O WORK
001234 EC?? F???      02867             CALL        LCDSENDDATA             ;SALTA PARA SUBROTINA DE ESCRITA NO LCD
001238 0012           02868             RETURN
00123A                02869 LI      
00123A 0E49           02870             MOVLW       'I'                     ;ENVIA O CARACTER PARA O WORK
00123C EC?? F???      02871             CALL        LCDSENDDATA             ;SALTA PARA SUBROTINA DE ESCRITA NO LCD
001240 0012           02872             RETURN
001242                02873 LJ      
001242 0E4A           02874             MOVLW       'J'                     ;ENVIA O CARACTER PARA O WORK
001244 EC?? F???      02875             CALL        LCDSENDDATA             ;SALTA PARA SUBROTINA DE ESCRITA NO LCD
001248 0012           02876             RETURN
                      02877         
00124A                02878 LK
00124A 0E4B           02879             MOVLW       'K'
00124C EC?? F???      02880             CALL        LCDSENDDATA
001250 0012           02881             RETURN
001252                02882 LL      
001252 0E4C           02883             MOVLW       'L'                     ;ENVIA O CARACTER PARA O WORK
001254 EC?? F???      02884             CALL        LCDSENDDATA             ;SALTA PARA SUBROTINA DE ESCRITA NO LCD
001258 0012           02885             RETURN
MPASM 5.87                   VAI DAR BOM.ASM   12-15-2020  2:16:19         PAGE 56


LOC  OBJECT CODE     LINE SOURCE TEXT
  VALUE

00125A                02886 LM      
00125A 0E4D           02887             MOVLW       'M'                     ;ENVIA O CARACTER PARA O WORK
00125C EC?? F???      02888             CALL        LCDSENDDATA             ;SALTA PARA SUBROTINA DE ESCRITA NO LCD
001260 0012           02889             RETURN
001262                02890 LN      
001262 0E4E           02891             MOVLW       'N'                     ;ENVIA O CARACTER PARA O WORK
001264 EC?? F???      02892             CALL        LCDSENDDATA             ;SALTA PARA SUBROTINA DE ESCRITA NO LCD
001268 0012           02893             RETURN
00126A                02894 LO      
00126A 0E4F           02895             MOVLW       'O'                     ;ENVIA O CARACTER PARA O WORK
00126C EC?? F???      02896             CALL        LCDSENDDATA             ;SALTA PARA SUBROTINA DE ESCRITA NO LCD
001270 0012           02897             RETURN
001272                02898 LP      
001272 0E50           02899             MOVLW       'P'                     ;ENVIA O CARACTER PARA O WORK
001274 EC?? F???      02900             CALL        LCDSENDDATA             ;SALTA PARA SUBROTINA DE ESCRITA NO LCD
001278 0012           02901             RETURN
00127A                02902 LQ      
00127A 0E51           02903             MOVLW       'Q'                     ;ENVIA O CARACTER PARA O WORK
00127C EC?? F???      02904             CALL        LCDSENDDATA             ;SALTA PARA SUBROTINA DE ESCRITA NO LCD
001280 0012           02905             RETURN
001282                02906 LR      
001282 0E52           02907             MOVLW       'R'                     ;ENVIA O CARACTER PARA O WORK
001284 EC?? F???      02908             CALL        LCDSENDDATA             ;SALTA PARA SUBROTINA DE ESCRITA NO LCD
001288 0012           02909             RETURN
00128A                02910 LS      
00128A 0E53           02911             MOVLW       'S'                     ;ENVIA O CARACTER PARA O WORK
00128C EC?? F???      02912             CALL        LCDSENDDATA             ;SALTA PARA SUBROTINA DE ESCRITA NO LCD
001290 0012           02913             RETURN
001292                02914 LT      
001292 0E54           02915             MOVLW       'T'                     ;ENVIA O CARACTER PARA O WORK
001294 EC?? F???      02916             CALL        LCDSENDDATA             ;SALTA PARA SUBROTINA DE ESCRITA NO LCD
001298 0012           02917             RETURN
00129A                02918 LU      
00129A 0E55           02919             MOVLW       'U'                     ;ENVIA O CARACTER PARA O WORK
00129C EC?? F???      02920             CALL        LCDSENDDATA             ;SALTA PARA SUBROTINA DE ESCRITA NO LCD
0012A0 0012           02921             RETURN
0012A2                02922 LV      
0012A2 0E56           02923             MOVLW       'V'                     ;ENVIA O CARACTER PARA O WORK
0012A4 EC?? F???      02924             CALL        LCDSENDDATA             ;SALTA PARA SUBROTINA DE ESCRITA NO LCD
0012A8 0012           02925             RETURN
0012AA                02926 LW      
0012AA 0E57           02927             MOVLW       'W'                     ;ENVIA O CARACTER PARA O WORK
0012AC EC?? F???      02928             CALL        LCDSENDDATA             ;SALTA PARA SUBROTINA DE ESCRITA NO LCD
0012B0 0012           02929             RETURN
0012B2                02930 LY      
0012B2 0E59           02931             MOVLW       'Y'                     ;ENVIA O CARACTER PARA O WORK
0012B4 EC?? F???      02932             CALL        LCDSENDDATA             ;SALTA PARA SUBROTINA DE ESCRITA NO LCD
0012B8 0012           02933             RETURN
0012BA                02934 LX      
0012BA 0E58           02935             MOVLW       'X'                     ;ENVIA O CARACTER PARA O WORK
0012BC EC?? F???      02936             CALL        LCDSENDDATA             ;SALTA PARA SUBROTINA DE ESCRITA NO LCD
0012C0 0012           02937             RETURN
0012C2                02938 LZ      
MPASM 5.87                   VAI DAR BOM.ASM   12-15-2020  2:16:19         PAGE 57


LOC  OBJECT CODE     LINE SOURCE TEXT
  VALUE

0012C2 0E5A           02939             MOVLW       'Z'                     ;ENVIA O CARACTER PARA O WORK
0012C4 EC?? F???      02940             CALL        LCDSENDDATA             ;SALTA PARA SUBROTINA DE ESCRITA NO LCD
0012C8 0012           02941             RETURN
0012CA                02942 L0      
0012CA 0E30           02943             MOVLW       '0'                     ;ENVIA O CARACTER PARA O WORK
0012CC EC?? F???      02944             CALL        LCDSENDDATA             ;SALTA PARA SUBROTINA DE ESCRITA NO LCD
0012D0 0012           02945             RETURN
0012D2                02946 L1      
0012D2 0E31           02947             MOVLW       '1'                     ;ENVIA O CARACTER PARA O WORK
0012D4 EC?? F???      02948             CALL        LCDSENDDATA             ;SALTA PARA SUBROTINA DE ESCRITA NO LCD
0012D8 0012           02949             RETURN
0012DA                02950 L2      
0012DA 0E32           02951             MOVLW       '2'                     ;ENVIA O CARACTER PARA O WORK
0012DC EC?? F???      02952             CALL        LCDSENDDATA             ;SALTA PARA SUBROTINA DE ESCRITA NO LCD
0012E0 0012           02953             RETURN
0012E2                02954 L3      
0012E2 0E33           02955             MOVLW       '3'                     ;ENVIA O CARACTER PARA O WORK
0012E4 EC?? F???      02956             CALL        LCDSENDDATA             ;SALTA PARA SUBROTINA DE ESCRITA NO LCD
0012E8 0012           02957             RETURN
0012EA                02958 L4      
0012EA 0E34           02959             MOVLW       '4'                     ;ENVIA O CARACTER PARA O WORK
0012EC EC?? F???      02960             CALL        LCDSENDDATA             ;SALTA PARA SUBROTINA DE ESCRITA NO LCD
0012F0 0012           02961             RETURN
0012F2                02962 L5      
0012F2 0E35           02963             MOVLW       '5'                     ;ENVIA O CARACTER PARA O WORK
0012F4 EC?? F???      02964             CALL        LCDSENDDATA             ;SALTA PARA SUBROTINA DE ESCRITA NO LCD
0012F8 0012           02965             RETURN
0012FA                02966 L6      
0012FA 0E36           02967             MOVLW       '6'                     ;ENVIA O CARACTER PARA O WORK
0012FC EC?? F???      02968             CALL        LCDSENDDATA             ;SALTA PARA SUBROTINA DE ESCRITA NO LCD
001300 0012           02969             RETURN
001302                02970 L7      
001302 0E37           02971             MOVLW       '7'                     ;ENVIA O CARACTER PARA O WORK
001304 EC?? F???      02972             CALL        LCDSENDDATA             ;SALTA PARA SUBROTINA DE ESCRITA NO LCD
001308 0012           02973             RETURN
00130A                02974 L8      
00130A 0E38           02975             MOVLW       '8'                     ;ENVIA O CARACTER PARA O WORK
00130C EC?? F???      02976             CALL        LCDSENDDATA             ;SALTA PARA SUBROTINA DE ESCRITA NO LCD
001310 0012           02977             RETURN
001312                02978 L9      
001312 0E39           02979             MOVLW       '9'                     ;ENVIA O CARACTER PARA O WORK
001314 EC?? F???      02980             CALL        LCDSENDDATA             ;SALTA PARA SUBROTINA DE ESCRITA NO LCD
001318 0012           02981             RETURN
                      02982 
00131A                02983 ESPACO  
00131A 0E20           02984             MOVLW       ' '                     ;ENVIA O CARACTER PARA O WORK
00131C EC?? F???      02985             CALL        LCDSENDDATA             ;SALTA PARA SUBROTINA DE ESCRITA NO LCD
001320 0012           02986             RETURN
001322                02987 PONTO   
001322 0E2E           02988             MOVLW       '.'                     ;ENVIA O CARACTER PARA O WORK
001324 EC?? F???      02989             CALL        LCDSENDDATA             ;SALTA PARA SUBROTINA DE ESCRITA NO LCD
001328 0012           02990             RETURN      
00132A                02991 MAIS    
MPASM 5.87                   VAI DAR BOM.ASM   12-15-2020  2:16:19         PAGE 58


LOC  OBJECT CODE     LINE SOURCE TEXT
  VALUE

00132A 0E2B           02992             MOVLW       '+'                     ;ENVIA O CARACTER PARA O WORK
00132C EC?? F???      02993             CALL        LCDSENDDATA             ;SALTA PARA SUBROTINA DE ESCRITA NO LCD
001330 0012           02994             RETURN
001332                02995 MENOS   
001332 0E2D           02996             MOVLW       '-'                     ;ENVIA O CARACTER PARA O WORK
001334 EC?? F???      02997             CALL        LCDSENDDATA             ;SALTA PARA SUBROTINA DE ESCRITA NO LCD
001338 0012           02998             RETURN
                      02999         
                      03000 ;*******************************************************************************
                      03001 ;           ROTINA QUE LIGA TODOS OS CARACTERES POR 3 SEGUNDOS
                      03002 ;*******************************************************************************
00133A                03003 TESTA_LCD
00133A 0E14           03004             MOVLW       .20             ;VALOR REFERENTE A N° DE COLUNAS
00133C 6E28           03005             MOVWF       TESTE_LINHA
00133E 0E80           03006             MOVLW       H'80'           ;MOVE O VALOR HEXADECIMAL 80 PARA WORK
001340 EC?? F???      03007             CALL        LCDLOCATE       ;SALTA PARA SUBROTINA DE POSICIONAMENTO
                      03008                                         ;DO CURSOR NA PRIMEIRA LINHA E COLUNA 
001344                03009 LCD_TEST1
001344 0EFF           03010             MOVLW       0XFF            ;ENVIA O CARACTER PARA O WORK
001346 EC?? F???      03011             CALL        LCDSENDDATA     ;SALTA PARA SUBROTINA DE ESCRITA NO LCD
00134A 2E28           03012             DECFSZ      TESTE_LINHA,F
00134C EF?? F???      03013             GOTO        LCD_TEST1       
001350 0E14           03014             MOVLW       .20             ;VALOR REFERENTE A N° DE COLUNAS
001352 6E28           03015             MOVWF       TESTE_LINHA
001354 0EC0           03016             MOVLW       H'C0'           ;MOVE O VALOR HEXADECIMAL C0 PARA WORK
001356 EC?? F???      03017             CALL        LCDLOCATE       ;SALTA PARA SUBROTINA DE POSICIONAMENTO DO CURSOR NA SEGUNDA LIN
                            HA E COLUNA PRIMEIRA    
00135A                03018 LCD_TEST2
00135A 0EFF           03019             MOVLW       0XFF            ;ENVIA O CARACTER PARA O WORK
00135C EC?? F???      03020             CALL        LCDSENDDATA     ;SALTA PARA SUBROTINA DE ESCRITA NO LCD
001360 2E28           03021             DECFSZ      TESTE_LINHA,F
001362 EF?? F???      03022             GOTO        LCD_TEST2
001366 0E14           03023             MOVLW       .20             ;VALOR REFERENTE A N° DE COLUNAS
001368 6E28           03024             MOVWF       TESTE_LINHA
00136A 0E94           03025             MOVLW       H'94'           ;MOVE O VALOR HEXADECIMAL 80 PARA WORK
00136C EC?? F???      03026             CALL        LCDLOCATE       ;SALTA PARA SUBROTINA DE POSICIONAMENTO DO CURSOR NA PRIMEIRA LI
                            NHA E COLUNA PRIMEIRA
001370                03027 LCD_TEST3
001370 0EFF           03028             MOVLW       0XFF            ;ENVIA O CARACTER PARA O WORK
001372 EC?? F???      03029             CALL        LCDSENDDATA     ;SALTA PARA SUBROTINA DE ESCRITA NO LCD
001376 2E28           03030             DECFSZ      TESTE_LINHA,F
001378 EF?? F???      03031             GOTO        LCD_TEST3       
00137C 0E14           03032             MOVLW       .20             ;VALOR REFERENTE A N° DE COLUNAS
00137E 6E28           03033             MOVWF       TESTE_LINHA
001380 0ED4           03034             MOVLW       H'D4'           ;MOVE O VALOR HEXADECIMAL C0 PARA WORK
001382 EC?? F???      03035             CALL        LCDLOCATE       ;SALTA PARA SUBROTINA DE POSICIONAMENTO DO CURSOR NA SEGUNDA LIN
                            HA E COLUNA PRIMEIRA    
001386                03036 LCD_TEST4
001386 0EFF           03037             MOVLW       H'FF'           ;ENVIA O CARACTER PARA O WORK
001388 EC?? F???      03038             CALL        LCDSENDDATA     ;SALTA PARA SUBROTINA DE ESCRITA NO LCD
00138C 2E28           03039             DECFSZ      TESTE_LINHA,F
00138E EF?? F???      03040             GOTO        LCD_TEST4
001392 EC?? F???      03041             CALL    DELAY_50MS
MPASM 5.87                   VAI DAR BOM.ASM   12-15-2020  2:16:19         PAGE 59


LOC  OBJECT CODE     LINE SOURCE TEXT
  VALUE

001396 EC?? F???      03042             CALL        LCDCLEAR
00139A 0012           03043             RETURN
                      03044         
                      03045         
                      03046 ;*******************************************************************************
                      03047 ; DELAY 50_MS
                      03048 ;*******************************************************************************
                      03049         
                      03050         
00139C                03051 DELAY_50MS
                      03052         
00139C 0E32           03053             MOVLW       .50
00139E EC?? F???      03054             CALL        DELAY_MS
0013A2 0012           03055             RETURN                      ;ENCERRA ROTINA 
                      03056 ; * * * * * * * * * * * * * * * * * * * * * * * * * * * * * * * * * * * * * *
                      03057 ; *                     ROTINA DE DELAY (DE 1MS ATÉ 256MS)                  *
                      03058 ; * * * * * * * * * * * * * * * * * * * * * * * * * * * * * * * * * * * * * *
                      03059 ; ESTA É UMA ROTINA DE DELAY VARIÁVEL, COM DURAÇÃO DE 1MS X O VALOR PASSADO
                      03060 ; EM WORK (W).
                      03061 ; EXEMPLO DE 250MS
                      03062 ; MOVLW .250
                      03063 ; CALL DELAY_MS
                      03064 ; EXEMPLO DE 50MS
                      03065 ; MOVLW .50
                      03066 ; CALL DELAY_MS
                      03067 
0013A4                03068 TEMP    
0013A4 5025           03069             MOVF        TEMPO2,W
0013A6 EF?? F???      03070             GOTO        DELAY_MS
0013AA                03071 DELAY_MS
0013AA 6E25           03072             MOVWF       TEMPO2
0013AC 6E24           03073             MOVWF       TEMPO1
                      03074 
0013AE B02D           03075             BTFSC       SET_TEMPO
0013B0 EF?? F???      03076             GOTO        LOOP4
0013B4 0E05           03077             MOVLW       H'05'
0013B6 6E26           03078             MOVWF       INCTEMPO
                      03079         
                      03080         
0013B8                03081 LOOP4
0013B8 802D           03082             BSF         SET_TEMPO
0013BA 0EA7           03083             MOVLW       .167           
0013BC 6E23           03084             MOVWF       TEMPO0          ;MOVE VALOR DE W PARA O ARQUIVO TEMPO
0013BE                03085 LOOP3
0013BE 0623           03086             DECF        TEMPO0,F            
0013C0 5023           03087             MOVF        TEMPO0,W           
0013C2 A4D8           03088             BTFSS       STATUS,Z     
0013C4 EF?? F???      03089             GOTO        LOOP3              
0013C8 0000           03090             NOP                     ;1us
0013CA 0000           03091             NOP                     ;1us
0013CC 0000           03092             NOP                     ;1us
0013CE 0000           03093             NOP                     ;1us
0013D0 2E24           03094             DECFSZ      TEMPO1,F        ;FIM DE TEMPO1 ?
MPASM 5.87                   VAI DAR BOM.ASM   12-15-2020  2:16:19         PAGE 60


LOC  OBJECT CODE     LINE SOURCE TEXT
  VALUE

0013D2 EF?? F???      03095             GOTO        LOOP4           ;NÃO - VOLTA 11 INSTRUÇÕES
0013D6 2E26           03096             DECFSZ      INCTEMPO,F
0013D8 EF?? F???      03097             GOTO        TEMP
0013DC 902D           03098             BCF         SET_TEMPO
0013DE 0012           03099             RETURN                      ; RETORNA               ; RETORNA 
                      03100 
                      03101         
                      03102         
                      03103         
                      03104 ;******************************************************************************
                      03105 ;                                   WS2812
                      03106 ;****************************************************************************** 
0013E0                03107 VERDE                               ;ENVIAR A COR VERDE PARA O LED
0013E0 7284           03108             BTG         LED_G,0
0013E2 0000           03109             NOP
0013E4 0000           03110             NOP
0013E6 0000           03111             NOP
0013E8 7284           03112             BTG         LED_G,0
0013EA 0000           03113             NOP 
                      03114             ;BIT 1
0013EC 7284           03115             BTG         LED_G,0
0013EE 0000           03116             NOP
0013F0 0000           03117             NOP
0013F2 0000           03118             NOP
0013F4 7284           03119             BTG         LED_G,0
0013F6 0000           03120             NOP
                      03121             ;BIT 2
0013F8 7284           03122             BTG         LED_G,0
0013FA 0000           03123             NOP
0013FC 0000           03124             NOP
0013FE 0000           03125             NOP
001400 7284           03126             BTG         LED_G,0
001402 0000           03127             NOP
                      03128             ;BIT 3
001404 7284           03129             BTG         LED_G,0
001406 0000           03130             NOP
001408 0000           03131             NOP
00140A 0000           03132             NOP
00140C 7284           03133             BTG         LED_G,0
00140E 0000           03134             NOP
                      03135             ;BIT 4
001410 7284           03136             BTG         LED_G,0
001412 0000           03137             NOP
001414 0000           03138             NOP
001416 0000           03139             NOP
001418 7284           03140             BTG         LED_G,0
00141A 0000           03141             NOP
                      03142             ;BIT 5
00141C 7284           03143             BTG         LED_G,0
00141E 0000           03144             NOP
001420 0000           03145             NOP
001422 0000           03146             NOP
001424 7284           03147             BTG         LED_G,0
MPASM 5.87                   VAI DAR BOM.ASM   12-15-2020  2:16:19         PAGE 61


LOC  OBJECT CODE     LINE SOURCE TEXT
  VALUE

001426 0000           03148             NOP
                      03149             ;BIT 6
001428 7284           03150             BTG         LED_G,0
00142A 0000           03151             NOP
00142C 0000           03152             NOP
00142E 0000           03153             NOP
001430 7284           03154             BTG         LED_G,0
001432 0000           03155             NOP
                      03156             ;BIT 7
001434 7284           03157             BTG         LED_G,0
001436 0000           03158             NOP
001438 7284           03159             BTG         LED_G,0
00143A 0000           03160             NOP
00143C 0000           03161             NOP
00143E 0000           03162             NOP
                      03163             ;BIT 8
001440 7284           03164             BTG         LED_G,0
001442 0000           03165             NOP
001444 7284           03166             BTG         LED_G,0
001446 0000           03167             NOP
001448 0000           03168             NOP
00144A 0000           03169             NOP
                      03170             ;BIT 9
00144C 7284           03171             BTG         LED_G,0
00144E 0000           03172             NOP
001450 7284           03173             BTG         LED_G,0
001452 0000           03174             NOP
001454 0000           03175             NOP
001456 0000           03176             NOP
                      03177             ;BIT 10
001458 7284           03178             BTG         LED_G,0
00145A 0000           03179             NOP
00145C 7284           03180             BTG         LED_G,0
00145E 0000           03181             NOP
001460 0000           03182             NOP
001462 0000           03183             NOP
                      03184             ;BIT 11
001464 7284           03185             BTG         LED_G,0
001466 0000           03186             NOP
001468 7284           03187             BTG         LED_G,0
00146A 0000           03188             NOP
00146C 0000           03189             NOP
00146E 0000           03190             NOP
                      03191             ;BIT 12
001470 7284           03192             BTG         LED_G,0
001472 0000           03193             NOP
001474 7284           03194             BTG         LED_G,0
001476 0000           03195             NOP
001478 0000           03196             NOP
00147A 0000           03197             NOP
                      03198             ;BIT 13
00147C 7284           03199             BTG         LED_G,0
00147E 0000           03200             NOP
MPASM 5.87                   VAI DAR BOM.ASM   12-15-2020  2:16:19         PAGE 62


LOC  OBJECT CODE     LINE SOURCE TEXT
  VALUE

001480 7284           03201             BTG         LED_G,0
001482 0000           03202             NOP
001484 0000           03203             NOP
001486 0000           03204             NOP
                      03205             ;BIT 14
001488 7284           03206             BTG         LED_G,0
00148A 0000           03207             NOP
00148C 7284           03208             BTG         LED_G,0
00148E 0000           03209             NOP
001490 0000           03210             NOP
001492 0000           03211             NOP
                      03212             ;BIT 15
001494 7284           03213             BTG         LED_G,0
001496 0000           03214             NOP
001498 7284           03215             BTG         LED_G,0
00149A 0000           03216             NOP
00149C 0000           03217             NOP
00149E 0000           03218             NOP
                      03219             ;BIT 16
0014A0 7284           03220             BTG         LED_G,0
0014A2 0000           03221             NOP
0014A4 7284           03222             BTG         LED_G,0
0014A6 0000           03223             NOP
0014A8 0000           03224             NOP
0014AA 0000           03225             NOP
                      03226             ;BIT 17
0014AC 7284           03227             BTG         LED_G,0
0014AE 0000           03228             NOP
0014B0 7284           03229             BTG         LED_G,0
0014B2 0000           03230             NOP
0014B4 0000           03231             NOP
0014B6 0000           03232             NOP
                      03233             ;BIT 18
0014B8 7284           03234             BTG         LED_G,0
0014BA 0000           03235             NOP
0014BC 7284           03236             BTG         LED_G,0
0014BE 0000           03237             NOP
0014C0 0000           03238             NOP
0014C2 0000           03239             NOP
                      03240             ;BIT 19
0014C4 7284           03241             BTG         LED_G,0
0014C6 0000           03242             NOP
0014C8 7284           03243             BTG         LED_G,0
0014CA 0000           03244             NOP
0014CC 0000           03245             NOP
0014CE 0000           03246             NOP
                      03247             ;BIT 20
0014D0 7284           03248             BTG         LED_G,0
0014D2 0000           03249             NOP
0014D4 7284           03250             BTG         LED_G,0
0014D6 0000           03251             NOP
0014D8 0000           03252             NOP
0014DA 0000           03253             NOP
MPASM 5.87                   VAI DAR BOM.ASM   12-15-2020  2:16:19         PAGE 63


LOC  OBJECT CODE     LINE SOURCE TEXT
  VALUE

                      03254             ;BIT 21   
0014DC 7284           03255             BTG         LED_G,0
0014DE 0000           03256             NOP
0014E0 7284           03257             BTG         LED_G,0
0014E2 0000           03258             NOP
0014E4 0000           03259             NOP
0014E6 0000           03260             NOP
                      03261             ;BIT 22
0014E8 7284           03262             BTG         LED_G,0
0014EA 0000           03263             NOP
0014EC 7284           03264             BTG         LED_G,0
0014EE 0000           03265             NOP
0014F0 0000           03266             NOP
0014F2 0000           03267             NOP
                      03268             ;BIT 23
0014F4 7284           03269             BTG         LED_G,0
0014F6 0000           03270             NOP
0014F8 7284           03271             BTG         LED_G,0
0014FA 0012           03272             RETURN
                      03273             ;BIT 24
0014FC                03274 VERMELHO                            ;ENVIAR A COR VERMELHA PARA O LED
0014FC 7284           03275             BTG         LED_G,0
0014FE 0000           03276             NOP
001500 7284           03277             BTG         LED_G,0
001502 0000           03278             NOP
001504 0000           03279             NOP
001506 0000           03280             NOP
                      03281             ;BIT 1
001508 7284           03282             BTG         LED_G,0
00150A 0000           03283             NOP
00150C 7284           03284             BTG         LED_G,0
00150E 0000           03285             NOP
001510 0000           03286             NOP
001512 0000           03287             NOP
                      03288             ;BIT 2
001514 7284           03289             BTG         LED_G,0
001516 0000           03290             NOP
001518 7284           03291             BTG         LED_G,0
00151A 0000           03292             NOP
00151C 0000           03293             NOP
00151E 0000           03294             NOP
                      03295             ;BIT 3
001520 7284           03296             BTG         LED_G,0
001522 0000           03297             NOP
001524 7284           03298             BTG         LED_G,0
001526 0000           03299             NOP
001528 0000           03300             NOP
00152A 0000           03301             NOP
                      03302             ;BIT 4
00152C 7284           03303             BTG         LED_G,0
00152E 0000           03304             NOP
001530 7284           03305             BTG         LED_G,0
001532 0000           03306             NOP
MPASM 5.87                   VAI DAR BOM.ASM   12-15-2020  2:16:19         PAGE 64


LOC  OBJECT CODE     LINE SOURCE TEXT
  VALUE

001534 0000           03307             NOP
001536 0000           03308             NOP
                      03309             ;BIT 5
001538 7284           03310             BTG         LED_G,0
00153A 0000           03311             NOP
00153C 7284           03312             BTG         LED_G,0
00153E 0000           03313             NOP
001540 0000           03314             NOP
001542 0000           03315             NOP
                      03316             ;BIT 6
001544 7284           03317             BTG         LED_G,0
001546 0000           03318             NOP
001548 7284           03319             BTG         LED_G,0
00154A 0000           03320             NOP
00154C 0000           03321             NOP
00154E 0000           03322             NOP
                      03323             ;BIT 7  
001550 7284           03324             BTG         LED_G,0
001552 0000           03325             NOP
001554 7284           03326             BTG         LED_G,0
001556 0000           03327             NOP
001558 0000           03328             NOP
                      03329             ;BIT 8
00155A 7284           03330             BTG         LED_G,0
00155C 0000           03331             NOP
00155E 0000           03332             NOP
001560 0000           03333             NOP
001562 7284           03334             BTG         LED_G,0
001564 0000           03335             NOP
                      03336             ;BIT    
001566 7284           03337             BTG         LED_G,0
001568 0000           03338             NOP
00156A 0000           03339             NOP
00156C 0000           03340             NOP
00156E 7284           03341             BTG         LED_G,0
001570 0000           03342             NOP 
                      03343             ;BIT 9
001572 7284           03344             BTG         LED_G,0
001574 0000           03345             NOP
001576 0000           03346             NOP
001578 0000           03347             NOP
00157A 7284           03348             BTG         LED_G,0
00157C 0000           03349             NOP
                      03350             ;BIT 10
00157E 7284           03351             BTG         LED_G,0
001580 0000           03352             NOP
001582 0000           03353             NOP
001584 0000           03354             NOP
001586 7284           03355             BTG         LED_G,0
001588 0000           03356             NOP
                      03357             ;BIT 11
00158A 7284           03358             BTG         LED_G,0
00158C 0000           03359             NOP
MPASM 5.87                   VAI DAR BOM.ASM   12-15-2020  2:16:19         PAGE 65


LOC  OBJECT CODE     LINE SOURCE TEXT
  VALUE

00158E 0000           03360             NOP
001590 0000           03361             NOP
001592 7284           03362             BTG         LED_G,0
001594 0000           03363             NOP
                      03364             ;BIT 12
001596 7284           03365             BTG         LED_G,0
001598 0000           03366             NOP
00159A 0000           03367             NOP
00159C 0000           03368             NOP
00159E 7284           03369             BTG         LED_G,0
0015A0 0000           03370             NOP
                      03371             ;BIT 13
0015A2 7284           03372             BTG         LED_G,0
0015A4 0000           03373             NOP
0015A6 0000           03374             NOP
0015A8 0000           03375             NOP
0015AA 7284           03376             BTG         LED_G,0
0015AC 0000           03377             NOP
                      03378             ;BIT 14
0015AE 7284           03379             BTG         LED_G,0
0015B0 0000           03380             NOP
0015B2 0000           03381             NOP
0015B4 0000           03382             NOP
0015B6 7284           03383             BTG         LED_G,0
0015B8 0000           03384             NOP
                      03385             ;BIT 15
0015BA 7284           03386             BTG         LED_G,0
0015BC 0000           03387             NOP
0015BE 7284           03388             BTG         LED_G,0
0015C0 0000           03389             NOP
0015C2 0000           03390             NOP
0015C4 0000           03391             NOP
                      03392             ;BIT 16
0015C6 7284           03393             BTG         LED_G,0
0015C8 0000           03394             NOP
0015CA 7284           03395             BTG         LED_G,0
0015CC 0000           03396             NOP
0015CE 0000           03397             NOP
0015D0 0000           03398             NOP
                      03399            ;BIT 17
0015D2 7284           03400             BTG         LED_G,0
0015D4 0000           03401             NOP
0015D6 7284           03402             BTG         LED_G,0
0015D8 0000           03403             NOP
0015DA 0000           03404             NOP
0015DC 0000           03405             NOP
                      03406             ;BIT 19
0015DE 7284           03407             BTG         LED_G,0
0015E0 0000           03408             NOP
0015E2 7284           03409             BTG         LED_G,0
0015E4 0000           03410             NOP
0015E6 0000           03411             NOP
0015E8 0000           03412             NOP
MPASM 5.87                   VAI DAR BOM.ASM   12-15-2020  2:16:19         PAGE 66


LOC  OBJECT CODE     LINE SOURCE TEXT
  VALUE

                      03413             ;BIT 20
0015EA 7284           03414             BTG         LED_G,0
0015EC 0000           03415             NOP
0015EE 7284           03416             BTG         LED_G,0
0015F0 0000           03417             NOP
0015F2 0000           03418             NOP
0015F4 0000           03419             NOP
                      03420             ;BIT 21         
0015F6 7284           03421             BTG         LED_G,0
0015F8 0000           03422             NOP
0015FA 7284           03423             BTG         LED_G,0
0015FC 0000           03424             NOP
0015FE 0000           03425             NOP
001600 0000           03426             NOP    
                      03427             ;BIT 22    
001602 7284           03428             BTG         LED_G,0
001604 0000           03429             NOP
001606 7284           03430             BTG         LED_G,0
001608 0000           03431             NOP
00160A 0000           03432             NOP
00160C 0000           03433             NOP
                      03434             ;BIT 23   
00160E 7284           03435             BTG         LED_G,0
001610 0000           03436             NOP
001612 7284           03437             BTG         LED_G,0
001614 0012           03438             RETURN
                      03439             ;BIT 24
                      03440                 
001616                03441 AZUL                                ;ENVIAR A COR AZUL PARA O LED
001616 7284           03442             BTG         LED_G,0
001618 0000           03443             NOP
00161A 7284           03444             BTG         LED_G,0
00161C 0000           03445             NOP
00161E 0000           03446             NOP
001620 0000           03447             NOP
                      03448             ;BIT 1
001622 7284           03449             BTG         LED_G,0
001624 0000           03450             NOP
001626 7284           03451             BTG         LED_G,0
001628 0000           03452             NOP
00162A 0000           03453             NOP
00162C 0000           03454             NOP
                      03455             ;BIT 2
00162E 7284           03456             BTG         LED_G,0
001630 0000           03457             NOP
001632 7284           03458             BTG         LED_G,0
001634 0000           03459             NOP
001636 0000           03460             NOP
001638 0000           03461             NOP
                      03462             ;BIT 3
00163A 7284           03463             BTG         LED_G,0
00163C 0000           03464             NOP
00163E 7284           03465             BTG         LED_G,0
MPASM 5.87                   VAI DAR BOM.ASM   12-15-2020  2:16:19         PAGE 67


LOC  OBJECT CODE     LINE SOURCE TEXT
  VALUE

001640 0000           03466             NOP
001642 0000           03467             NOP
001644 0000           03468             NOP
                      03469             ;BIT 4
001646 7284           03470             BTG         LED_G,0
001648 0000           03471             NOP
00164A 7284           03472             BTG         LED_G,0
00164C 0000           03473             NOP
00164E 0000           03474             NOP
001650 0000           03475             NOP
                      03476             ;BIT 5
001652 7284           03477             BTG         LED_G,0
001654 0000           03478             NOP
001656 7284           03479             BTG         LED_G,0
001658 0000           03480             NOP
00165A 0000           03481             NOP
00165C 0000           03482             NOP
                      03483             ;BIT 6
00165E 7284           03484             BTG         LED_G,0
001660 0000           03485             NOP
001662 7284           03486             BTG         LED_G,0
001664 0000           03487             NOP
001666 0000           03488             NOP
001668 0000           03489             NOP
                      03490             ;BIT 7
00166A 7284           03491             BTG         LED_G,0
00166C 0000           03492             NOP
00166E 7284           03493             BTG         LED_G,0
001670 0000           03494             NOP
001672 0000           03495             NOP
001674 0000           03496             NOP
                      03497             ;BIT 8
001676 7284           03498             BTG         LED_G,0
001678 0000           03499             NOP
00167A 7284           03500             BTG         LED_G,0
00167C 0000           03501             NOP
00167E 0000           03502             NOP
001680 0000           03503             NOP
                      03504             ;BIT 9
001682 7284           03505             BTG         LED_G,0
001684 0000           03506             NOP
001686 7284           03507             BTG         LED_G,0
001688 0000           03508             NOP
00168A 0000           03509             NOP
00168C 0000           03510             NOP
                      03511             ;BIT 10
00168E 7284           03512             BTG         LED_G,0
001690 0000           03513             NOP
001692 7284           03514             BTG         LED_G,0
001694 0000           03515             NOP
001696 0000           03516             NOP
001698 0000           03517             NOP
                      03518             ;BIT 11
MPASM 5.87                   VAI DAR BOM.ASM   12-15-2020  2:16:19         PAGE 68


LOC  OBJECT CODE     LINE SOURCE TEXT
  VALUE

00169A 7284           03519             BTG         LED_G,0
00169C 0000           03520             NOP
00169E 7284           03521             BTG         LED_G,0
0016A0 0000           03522             NOP
0016A2 0000           03523             NOP
0016A4 0000           03524             NOP
                      03525             ;BIT 12
0016A6 7284           03526             BTG         LED_G,0
0016A8 0000           03527             NOP
0016AA 7284           03528             BTG         LED_G,0
0016AC 0000           03529             NOP
0016AE 0000           03530             NOP
0016B0 0000           03531             NOP
                      03532             ;BIT 13
0016B2 7284           03533             BTG         LED_G,0
0016B4 0000           03534             NOP
0016B6 7284           03535             BTG         LED_G,0
0016B8 0000           03536             NOP
0016BA 0000           03537             NOP
0016BC 0000           03538             NOP
                      03539             ;BIT 14
0016BE 7284           03540             BTG         LED_G,0
0016C0 0000           03541             NOP
0016C2 7284           03542             BTG         LED_G,0
0016C4 0000           03543             NOP
0016C6 0000           03544             NOP
0016C8 0000           03545             NOP
                      03546             ;BIT 15
0016CA 7284           03547             BTG         LED_G,0
0016CC 0000           03548             NOP
0016CE 0000           03549             NOP
0016D0 0000           03550             NOP
0016D2 7284           03551             BTG         LED_G,0
0016D4 0000           03552             NOP
                      03553             ;BIT 16
0016D6 7284           03554             BTG         LED_G,0
0016D8 0000           03555             NOP
0016DA 0000           03556             NOP
0016DC 0000           03557             NOP
0016DE 7284           03558             BTG         LED_G,0
0016E0 0000           03559             NOP
                      03560             ;BIT 17
0016E2 7284           03561             BTG         LED_G,0
0016E4 0000           03562             NOP
0016E6 0000           03563             NOP
0016E8 0000           03564             NOP
0016EA 7284           03565             BTG         LED_G,0
0016EC 0000           03566             NOP 
                      03567             ;BIT 18
0016EE 7284           03568             BTG         LED_G,0
0016F0 0000           03569             NOP
0016F2 0000           03570             NOP
0016F4 0000           03571             NOP
MPASM 5.87                   VAI DAR BOM.ASM   12-15-2020  2:16:19         PAGE 69


LOC  OBJECT CODE     LINE SOURCE TEXT
  VALUE

0016F6 7284           03572             BTG         LED_G,0
0016F8 0000           03573             NOP
                      03574             ;BIT 19
0016FA 7284           03575             BTG         LED_G,0
0016FC 0000           03576             NOP
0016FE 0000           03577             NOP
001700 0000           03578             NOP
001702 7284           03579             BTG         LED_G,0
001704 0000           03580             NOP
                      03581             ;BIT 20
001706 7284           03582             BTG         LED_G,0
001708 0000           03583             NOP
00170A 0000           03584             NOP
00170C 0000           03585             NOP
00170E 7284           03586             BTG         LED_G,0
001710 0000           03587             NOP
                      03588             ;BIT 21
001712 7284           03589             BTG         LED_G,0
001714 0000           03590             NOP
001716 0000           03591             NOP
001718 0000           03592             NOP
00171A 7284           03593             BTG         LED_G,0
00171C 0000           03594             NOP
                      03595             ;BIT 22
00171E 7284           03596             BTG         LED_G,0
001720 0000           03597             NOP
001722 0000           03598             NOP
001724 0000           03599             NOP
001726 7284           03600             BTG         LED_G,0
001728 0000           03601             NOP
                      03602             ;BIT 23
00172A 7284           03603             BTG         LED_G,0
00172C 0000           03604             NOP
00172E 0000           03605             NOP
001730 0000           03606             NOP
001732 7284           03607             BTG         LED_G,0
001734 0012           03608             RETURN
                      03609             ;BIT 24
001736                03610 PRETO                               ;ENVIAR A COR PRETA PARA O LED
001736 7284           03611             BTG         LED_G,0
001738 0000           03612             NOP
00173A 7284           03613             BTG         LED_G,0
00173C 0000           03614             NOP
00173E 0000           03615             NOP
001740 0000           03616             NOP
                      03617             ;BIT 1
001742 7284           03618             BTG         LED_G,0
001744 0000           03619             NOP
001746 7284           03620             BTG         LED_G,0
001748 0000           03621             NOP
00174A 0000           03622             NOP
00174C 0000           03623             NOP
                      03624             ;BIT 2
MPASM 5.87                   VAI DAR BOM.ASM   12-15-2020  2:16:19         PAGE 70


LOC  OBJECT CODE     LINE SOURCE TEXT
  VALUE

00174E 7284           03625             BTG         LED_G,0
001750 0000           03626             NOP
001752 7284           03627             BTG         LED_G,0
001754 0000           03628             NOP
001756 0000           03629             NOP
001758 0000           03630             NOP
                      03631             ;BIT 3
00175A 7284           03632             BTG         LED_G,0
00175C 0000           03633             NOP
00175E 7284           03634             BTG         LED_G,0
001760 0000           03635             NOP
001762 0000           03636             NOP
001764 0000           03637             NOP
                      03638             ;BIT 4
001766 7284           03639             BTG         LED_G,0
001768 0000           03640             NOP
00176A 7284           03641             BTG         LED_G,0
00176C 0000           03642             NOP
00176E 0000           03643             NOP
001770 0000           03644             NOP
                      03645             ;BIT 5
001772 7284           03646             BTG         LED_G,0
001774 0000           03647             NOP
001776 7284           03648             BTG         LED_G,0
001778 0000           03649             NOP
00177A 0000           03650             NOP
00177C 0000           03651             NOP
                      03652             ;BIT 6
00177E 7284           03653             BTG         LED_G,0
001780 0000           03654             NOP
001782 7284           03655             BTG         LED_G,0
001784 0000           03656             NOP
001786 0000           03657             NOP
001788 0000           03658             NOP
                      03659             ;BIT 7
00178A 7284           03660             BTG         LED_G,0
00178C 0000           03661             NOP
00178E 7284           03662             BTG         LED_G,0
001790 0000           03663             NOP
001792 0000           03664             NOP
001794 0000           03665             NOP
                      03666             ;BIT 8
001796 7284           03667             BTG         LED_G,0
001798 0000           03668             NOP
00179A 7284           03669             BTG         LED_G,0
00179C 0000           03670             NOP
00179E 0000           03671             NOP
0017A0 0000           03672             NOP
                      03673             ;BIT 9
0017A2 7284           03674             BTG         LED_G,0
0017A4 0000           03675             NOP
0017A6 7284           03676             BTG         LED_G,0
0017A8 0000           03677             NOP
MPASM 5.87                   VAI DAR BOM.ASM   12-15-2020  2:16:19         PAGE 71


LOC  OBJECT CODE     LINE SOURCE TEXT
  VALUE

0017AA 0000           03678             NOP
0017AC 0000           03679             NOP
                      03680             ;BIT 10
0017AE 7284           03681             BTG         LED_G,0
0017B0 0000           03682             NOP
0017B2 7284           03683             BTG         LED_G,0
0017B4 0000           03684             NOP
0017B6 0000           03685             NOP
0017B8 0000           03686             NOP
                      03687             ;BIT 11
0017BA 7284           03688             BTG         LED_G,0
0017BC 0000           03689             NOP
0017BE 7284           03690             BTG         LED_G,0
0017C0 0000           03691             NOP
0017C2 0000           03692             NOP
0017C4 0000           03693             NOP
                      03694             ;BIT 12
0017C6 7284           03695             BTG         LED_G,0
0017C8 0000           03696             NOP
0017CA 7284           03697             BTG         LED_G,0
0017CC 0000           03698             NOP
0017CE 0000           03699             NOP
0017D0 0000           03700             NOP
                      03701             ;BIT 13
0017D2 7284           03702             BTG         LED_G,0
0017D4 0000           03703             NOP
0017D6 7284           03704             BTG         LED_G,0
0017D8 0000           03705             NOP
0017DA 0000           03706             NOP
0017DC 0000           03707             NOP
                      03708             ;BIT 14
0017DE 7284           03709             BTG         LED_G,0
0017E0 0000           03710             NOP
0017E2 7284           03711             BTG         LED_G,0
0017E4 0000           03712             NOP
0017E6 0000           03713             NOP
0017E8 0000           03714             NOP
                      03715             ;BIT 15         
0017EA 7284           03716             BTG         LED_G,0
0017EC 0000           03717             NOP
0017EE 7284           03718             BTG         LED_G,0
0017F0 0000           03719             NOP
0017F2 0000           03720             NOP
0017F4 0000           03721             NOP
                      03722             ;BIT 16
0017F6 7284           03723             BTG         LED_G,0
0017F8 0000           03724             NOP
0017FA 7284           03725             BTG         LED_G,0
0017FC 0000           03726             NOP
0017FE 0000           03727             NOP
001800 0000           03728             NOP
                      03729             ;BIT 17         
001802 7284           03730             BTG         LED_G,0
MPASM 5.87                   VAI DAR BOM.ASM   12-15-2020  2:16:19         PAGE 72


LOC  OBJECT CODE     LINE SOURCE TEXT
  VALUE

001804 0000           03731             NOP
001806 7284           03732             BTG         LED_G,0
001808 0000           03733             NOP
00180A 0000           03734             NOP
00180C 0000           03735             NOP
                      03736             ;BIT 18         
00180E 7284           03737             BTG         LED_G,0
001810 0000           03738             NOP
001812 7284           03739             BTG         LED_G,0
001814 0000           03740             NOP
001816 0000           03741             NOP
001818 0000           03742             NOP
                      03743             ;BIT 19         
00181A 7284           03744             BTG         LED_G,0
00181C 0000           03745             NOP
00181E 7284           03746             BTG         LED_G,0
001820 0000           03747             NOP
001822 0000           03748             NOP
001824 0000           03749             NOP
                      03750             ;BIT 20         
001826 7284           03751             BTG         LED_G,0
001828 0000           03752             NOP
00182A 7284           03753             BTG         LED_G,0
00182C 0000           03754             NOP
00182E 0000           03755             NOP
001830 0000           03756             NOP
                      03757             ;BIT 21         
001832 7284           03758             BTG         LED_G,0
001834 0000           03759             NOP
001836 7284           03760             BTG         LED_G,0
001838 0000           03761             NOP
00183A 0000           03762             NOP
00183C 0000           03763             NOP
                      03764             ;BIT 22         
00183E 7284           03765             BTG         LED_G,0
001840 0000           03766             NOP
001842 7284           03767             BTG         LED_G,0
001844 0000           03768             NOP
001846 0000           03769             NOP
001848 0000           03770             NOP
                      03771             ;BIT 23         
00184A 7284           03772             BTG         LED_G,0
00184C 0000           03773             NOP
00184E 7284           03774             BTG         LED_G,0
001850 0000           03775             NOP
001852 0012           03776             RETURN
                      03777             ;BIT 24
                      03778     END
MPASM 5.87                   VAI DAR BOM.ASM   12-15-2020  2:16:19         PAGE 73


SYMBOL TABLE
  LABEL                             VALUE 

A                                 00000000
ABDEN                             00000000
ABDOVF                            00000007
ACCESS                            00000000
ACKDT                             00000005
ACKEN                             00000004
ACKSTAT                           00000006
ACQT0                             00000003
ACQT1                             00000004
ACQT2                             00000005
ACTVIE                            00000002
ACTVIF                            00000002
ADCON0                            00000FC2
ADCON1                            00000FC1
ADCON2                            00000FC0
ADCS0                             00000000
ADCS1                             00000001
ADCS2                             00000002
ADDEN                             00000003
ADDR0                             00000000
ADDR1                             00000001
ADDR2                             00000002
ADDR3                             00000003
ADDR4                             00000004
ADDR5                             00000005
ADDR6                             00000006
ADEN                              00000003
ADFM                              00000007
ADIE                              00000006
ADIF                              00000006
ADIP                              00000006
ADON                              00000000
ADRES                             00000FC3
ADRESH                            00000FC4
ADRESL                            00000FC3
ALFACE                            00000128
ALFACE_LCD                        00000FB4
ALFACE_SE                         00000392
AN0                               00000000
AN1                               00000001
AN2                               00000002
AN3                               00000003
AN4                               00000005
AZUL                              00001616
BA                                0X50
BAIXO                             FLAG,2
BANKED                            00000001
BAUDCON                           00000FB8
BAUDCTL                           00000FB8
BCLIE                             00000003
BCLIF                             00000003
BCLIP                             00000003
BF                                00000000
MPASM 5.87                   VAI DAR BOM.ASM   12-15-2020  2:16:19         PAGE 74


SYMBOL TABLE
  LABEL                             VALUE 

BGST                              00000005
BOR                               00000000
BOT_ALTO                          FLAG01,5
BRG16                             00000003
BRGH                              00000002
BSR                               00000FE0
BTOEE                             00000004
BTOEF                             00000004
BTSEE                             00000007
BTSEF                             00000007
BT_B                              PORTB,4
BT_C                              PORTB,5
BT_D                              PORTB,2
BT_E                              PORTB,3
BT_ENTER                          PORTB,6
BUFFER                            0000018A
C                                 00000000
C1INV                             00000004
C1OUT                             00000006
C2INV                             00000005
C2OUT                             00000007
CCP1                              00000002
CCP1AS                            00000FB6
CCP1CON                           00000FBD
CCP1DEL                           00000FB7
CCP1IE                            00000002
CCP1IF                            00000002
CCP1IP                            00000002
CCP1M0                            00000000
CCP1M1                            00000001
CCP1M2                            00000002
CCP1M3                            00000003
CCP2CON                           00000FBA
CCP2IE                            00000000
CCP2IF                            00000000
CCP2IP                            00000000
CCP2M0                            00000000
CCP2M1                            00000001
CCP2M2                            00000002
CCP2M3                            00000003
CCPR1                             00000FBE
CCPR1H                            00000FBF
CCPR1L                            00000FBE
CCPR2                             00000FBB
CCPR2H                            00000FBC
CCPR2L                            00000FBB
CEBOLINHA                         00000148
CEBOLINHA_LCD                     00000FE0
CEBOLINHA_SE                      000002DC
CFGS                              00000006
CHS0                              00000002
CHS1                              00000003
CHS2                              00000004
MPASM 5.87                   VAI DAR BOM.ASM   12-15-2020  2:16:19         PAGE 75


SYMBOL TABLE
  LABEL                             VALUE 

CHS3                              00000005
CIMA                              FLAG,3
CIS                               00000003
CK                                00000006
CK1SPP                            00000000
CK2SPP                            00000001
CKE                               00000006
CKP                               00000004
CLK1EN                            00000004
CLKCFG0                           00000006
CLKCFG1                           00000007
CM0                               00000000
CM1                               00000001
CM2                               00000002
CMCON                             00000FB4
CMIE                              00000006
CMIF                              00000006
CMIP                              00000006
COLHEITA                          0000034C
CONT                              0x2E
CONTADOR_SENSOR                   0X3B
CONTINUA_LCD                      0000061E
CRC16EE                           00000002
CRC16EF                           00000002
CRC5EE                            00000001
CRC5EF                            00000001
CREN                              00000004
CSEN                              00000005
CSRC                              00000007
CURSOR_ALTERNADO                  0000115C
CURSOR_BLINK                      00001154
CURSOR_DIR                        00001164
CURSOR_ESQ                        0000116C
CURSOR_HOME                       00001174
CURSOR_OFF                        00001144
CURSOR_ON                         0000114C
CVR0                              00000000
CVR1                              00000001
CVR2                              00000002
CVR3                              00000003
CVRCON                            00000FB5
CVREF                             00000004
CVREN                             00000007
CVROE                             00000006
CVRR                              00000005
CVRSS                             00000004
D                                 00000005
DADO                              0X30
DADO_EPROM                        0X54
DADO_LCD                          0X37
DATAR                             0X2F
DATA_ADDRESS                      00000005
DC                                00000001
MPASM 5.87                   VAI DAR BOM.ASM   12-15-2020  2:16:19         PAGE 76


SYMBOL TABLE
  LABEL                             VALUE 

DC1B0                             00000004
DC1B1                             00000005
DC2B0                             00000004
DC2B1                             00000005
DDRA                              TRISA
DDRB                              TRISB
DDRC                              TRISC
DDRD                              TRISD
DDRE                              TRISE
DEC_                              00001058
DEC_ENTRA                         0000106C
DEC_ENTRA_1                       00001072
DEC_M                             00000124
DEC_MOTOR                         00000110
DEFINIDO                          FLAG02,1
DELAY_50MS                        0000139C
DELAY_MS                          000013AA
DESABILITADO                      00000A28
DESLIGA_                          00000018
DESLIGA_L                         00000582
DESLIGA_M                         FLAG01,4
DESLIGA_MOTOR                     00000102
DEZENA                            0X44
DFN8EE                            00000003
DFN8EF                            00000003
DIAS                              0X56
DIR                               00000002
DIVI                              0X3C
DIVISAO                           00000468
DIVI_01                           0000047E
DONE                              00000001
DUTY_CYCLE                        0X51
D_A                               00000005
D_MENO                            0000048E
D_NOT_A                           00000005
ECCP1AS                           00000FB6
ECCP1CON                          00000FBD
ECCP1DEL                          00000FB7
ECCPAS0                           00000004
ECCPAS1                           00000005
ECCPAS2                           00000006
ECCPASE                           00000007
EEADR                             00000FA9
EECON1                            00000FA6
EECON2                            00000FA7
EEDATA                            00000FA8
EEIE                              00000004
EEIF                              00000004
EEIP                              00000004
EEPGD                             00000007
ENDP0                             00000003
ENDP1                             00000004
ENDP2                             00000005
MPASM 5.87                   VAI DAR BOM.ASM   12-15-2020  2:16:19         PAGE 77


SYMBOL TABLE
  LABEL                             VALUE 

ENDP3                             00000006
ENTER                             FLAG,4
ENTRA                             FLAG01,1
ENTRADAS_ENTER                    00000ACC
ENTRADAS_S                        00000A62
ENTRA_1                           FLAG01,3
ENTRA_2                           FLAG02,4
ENTRA_3                           FLAG02,5
EPCONDIS                          00000003
EPHSHK                            00000004
EPINEN                            00000001
EPOUTEN                           00000002
EPSTALL                           00000000
ERRO_BROKER                       000002A4
ERRO_REDE                         00000274
ESPACO                            0000131A
ESPERA_LEITURA                    00000460
ESTADO_03                         00000706
ESTADO_2                          000006F6
EXIT                              00000026
FAST                              00000001
FERR                              00000002
FLAG                              0x2D
FLAG01                            0X45
FLAG02                            0X4A
FLTS                              00000002
FREE                              00000004
FRM0                              00000000
FRM1                              00000001
FRM10                             00000002
FRM2                              00000002
FRM3                              00000003
FRM4                              00000004
FRM5                              00000005
FRM6                              00000006
FRM7                              00000007
FRM8                              00000000
FRM9                              00000001
FSEN                              00000002
FSR0                              00000000
FSR0H                             00000FEA
FSR0L                             00000FE9
FSR1                              00000001
FSR1H                             00000FE2
FSR1L                             00000FE1
FSR2                              00000002
FSR2H                             00000FDA
FSR2L                             00000FD9
GCEN                              00000007
GIE                               00000007
GIEH                              00000007
GIEL                              00000006
GIE_GIEH                          00000007
MPASM 5.87                   VAI DAR BOM.ASM   12-15-2020  2:16:19         PAGE 78


SYMBOL TABLE
  LABEL                             VALUE 

GO                                00000001
GO_DONE                           00000001
GO_NOT_DONE                       00000001
HABILITADO                        00000996
HIGH_ISR                          00000000
HLVDCON                           00000FD2
HLVDEN                            00000004
HLVDIE                            00000002
HLVDIF                            00000002
HLVDIN                            00000005
HLVDIP                            00000002
HLVDL0                            00000000
HLVDL1                            00000001
HLVDL2                            00000002
HLVDL3                            00000003
I2C_DAT                           00000005
I2C_READ                          00000002
I2C_START                         00000003
I2C_STOP                          00000004
IDLEIE                            00000004
IDLEIF                            00000004
IDLEN                             00000007
INCTEMPO                          0x26
INC_                              00001048
INC_ENTRA                         00001068
INC_ENTRA_1                       00001070
INC_MOTOR                         00000106
INDF0                             00000FEF
INDF1                             00000FE7
INDF2                             00000FDF
INICIALIZA_LCD                    0000109C
INT0                              00000000
INT0E                             00000004
INT0F                             00000001
INT0IE                            00000004
INT0IF                            00000001
INT1                              00000001
INT1E                             00000003
INT1F                             00000000
INT1IE                            00000003
INT1IF                            00000000
INT1IP                            00000006
INT1P                             00000006
INT2                              00000002
INT2E                             00000004
INT2F                             00000001
INT2IE                            00000004
INT2IF                            00000001
INT2IP                            00000007
INT2P                             00000007
INTCON                            00000FF2
INTCON2                           00000FF1
INTCON3                           00000FF0
MPASM 5.87                   VAI DAR BOM.ASM   12-15-2020  2:16:19         PAGE 79


SYMBOL TABLE
  LABEL                             VALUE 

INTEDG0                           00000006
INTEDG1                           00000005
INTEDG2                           00000004
INTSRC                            00000007
IOFS                              00000002
IPEN                              00000007
IPR1                              00000F9F
IPR2                              00000FA2
IRCF0                             00000004
IRCF1                             00000005
IRCF2                             00000006
IRVST                             00000005
IVRST                             00000005
L0                                000012CA
L1                                000012D2
L2                                000012DA
L3                                000012E2
L4                                000012EA
L5                                000012F2
L6                                000012FA
L7                                00001302
L8                                0000130A
L9                                00001312
LA                                000011FA
LATA                              00000F89
LATA0                             00000000
LATA1                             00000001
LATA2                             00000002
LATA3                             00000003
LATA4                             00000004
LATA5                             00000005
LATA6                             00000006
LATB                              00000F8A
LATB0                             00000000
LATB1                             00000001
LATB2                             00000002
LATB3                             00000003
LATB4                             00000004
LATB5                             00000005
LATB6                             00000006
LATB7                             00000007
LATC                              00000F8B
LATC0                             00000000
LATC1                             00000001
LATC2                             00000002
LATC6                             00000006
LATC7                             00000007
LATD                              00000F8C
LATD0                             00000000
LATD1                             00000001
LATD2                             00000002
LATD3                             00000003
LATD4                             00000004
MPASM 5.87                   VAI DAR BOM.ASM   12-15-2020  2:16:19         PAGE 80


SYMBOL TABLE
  LABEL                             VALUE 

LATD5                             00000005
LATD6                             00000006
LATD7                             00000007
LATE                              00000F8D
LATE0                             00000000
LATE1                             00000001
LATE2                             00000002
LB                                00001202
LC                                0000120A
LCDCLEAR                          0000117C
LCDLOCATE                         00001190
LCDSENDBYTE                       000011A6
LCDSENDCOMMAND                    0000119E
LCDSENDDATA                       00001196
LCD_BOTOES                        00000028
LCD_CURSOR_DIR                    00001114
LCD_CURSOR_ESQ                    0000111C
LCD_DB4                           PORTD,4
LCD_DB5                           PORTD,5
LCD_DB6                           PORTD,6
LCD_DB7                           PORTD,7
LCD_E                             PORTD,3
LCD_OFF                           0000110C
LCD_ON                            00001104
LCD_RS                            PORTD,2
LCD_TEST1                         00001344
LCD_TEST2                         0000135A
LCD_TEST3                         00001370
LCD_TEST4                         00001386
LCD_TEXTO_DIR                     00001124
LCD_TEXTO_ESQ                     0000112C
LD                                00001212
LE                                0000121A
LEDS                              FLAG01,7
LED_B                             PORTE,2
LED_G                             PORTE,1
LED_R                             PORTE,0
LEITURA_SENSORES                  000003D0
LF                                00001222
LG                                0000122A
LH                                00001232
LI                                0000123A
LIBERA_S                          00000048
LIGA_L                            0000055A
LIGA_MOTOR                        000000F0
LIMPA                             000004DC
LIMPA_ENTRA                       0000083A
LJ                                00001242
LK                                0000124A
LL                                00001252
LM                                0000125A
LN                                00001262
LO                                0000126A
MPASM 5.87                   VAI DAR BOM.ASM   12-15-2020  2:16:19         PAGE 81


SYMBOL TABLE
  LABEL                             VALUE 

LOOP                              000000AA
LOOP3                             000013BE
LOOP4                             000013B8
LOOP_TESTE                        000000B4
LOOP_UNI                          000004AA
LOW_ISR                           00000000
LP                                00001272
LQ                                0000127A
LR                                00001282
LS                                0000128A
LT                                00001292
LU                                0000129A
LUMINOSIDADE                      0X32
LUMINOSIDADE_L                    0X3F
LUMINOSIDADE_LCD                  00000F54
LUMI_IDEIAL_MAX                   0X36
LUMI_IDEIAL_MIN                   0X49
LUMI_LCD                          00000D02
LV                                000012A2
LVDCON                            00000FD2
LVDEN                             00000004
LVDIE                             00000002
LVDIF                             00000002
LVDIN                             00000005
LVDIP                             00000002
LVDL0                             00000000
LVDL1                             00000001
LVDL2                             00000002
LVDL3                             00000003
LVV0                              00000000
LVV1                              00000001
LVV2                              00000002
LVV3                              00000003
LW                                000012AA
LX                                000012BA
LY                                000012B2
LZ                                000012C2
MAIOR_                            000005A6
MAIS                              0000132A
MANDA_ZERO                        000004EA
MAX                               0x2B
MENOR_                            000005AA
MENOS                             00001332
MENU                              FLAG01,0
MIN                               0x2C
MOTOR_T                           FLAG02,0
MUDA_LUMIMAX                      00000DA0
MUDA_LUMIMIN                      00000DD8
MUDA_TEMPMAX                      00000B98
MUDA_TEMPMIN                      00000BD0
MUDA_UMIMAX                       00000C92
MUDA_UMIMIN                       00000CCA
N                                 00000004
MPASM 5.87                   VAI DAR BOM.ASM   12-15-2020  2:16:19         PAGE 82


SYMBOL TABLE
  LABEL                             VALUE 

NOT_A                             00000005
NOT_ADDRESS                       00000005
NOT_BOR                           00000000
NOT_DONE                          00000001
NOT_IPEN                          00000007
NOT_PD                            00000002
NOT_POR                           00000001
NOT_RBPU                          00000007
NOT_RI                            00000004
NOT_T1SYNC                        00000002
NOT_T3SYNC                        00000002
NOT_TO                            00000003
NOT_W                             00000002
NOT_WRITE                         00000002
OERR                              00000001
OESPP                             00000002
OK__                              000006FC
OSC2                              00000006
OSCCON                            00000FD3
OSCFIE                            00000007
OSCFIF                            00000007
OSCFIP                            00000007
OSCTUNE                           00000F9B
OSTS                              00000003
OV                                00000003
P                                 00000004
P1A                               00000002
P1M0                              00000006
P1M1                              00000007
PC                                00000FF9
PCFG0                             00000000
PCFG1                             00000001
PCFG2                             00000002
PCFG3                             00000003
PCL                               00000FF9
PCLATH                            00000FFA
PCLATU                            00000FFB
PD                                00000002
PDC0                              00000000
PDC1                              00000001
PDC2                              00000002
PDC3                              00000003
PDC4                              00000004
PDC5                              00000005
PDC6                              00000006
PEIE                              00000006
PEIE_GIEL                         00000006
PEN                               00000002
PGC                               00000006
PGD                               00000007
PGM                               00000005
PIDEE                             00000000
PIDEF                             00000000
MPASM 5.87                   VAI DAR BOM.ASM   12-15-2020  2:16:19         PAGE 83


SYMBOL TABLE
  LABEL                             VALUE 

PIE1                              00000F9D
PIE2                              00000FA0
PIR1                              00000F9E
PIR2                              00000FA1
PKTDIS                            00000004
PLANTA_I_S                        FLAG02,3
PLANTA_S                          0000072A
PLANTA_S_ENTER                    000007BC
PLUSW0                            00000FEB
PLUSW1                            00000FE3
PLUSW2                            00000FDB
PONTO                             00001322
POR                               00000001
PORTA                             00000F80
PORTB                             00000F81
PORTC                             00000F82
PORTD                             00000F83
PORTE                             00000F84
POSICAO_EPROM                     0X55
POSTDEC0                          00000FED
POSTDEC1                          00000FE5
POSTDEC2                          00000FDD
POSTINC0                          00000FEE
POSTINC1                          00000FE6
POSTINC2                          00000FDE
PPB0                              00000000
PPB1                              00000001
PPBI                              00000001
PPBRST                            00000006
PR2                               00000FCB
PREINC0                           00000FEC
PREINC1                           00000FE4
PREINC2                           00000FDC
PRETO                             00001736
PROD                              00000FF3
PRODH                             00000FF4
PRODL                             00000FF3
PRSEN                             00000007
PSA                               00000003
PSSAC0                            00000002
PSSAC1                            00000003
PSSBD0                            00000000
PSSBD1                            00000001
PULA_COLHEITA                     000003E2
PULA_LUMI                         00000430
PULA_MENU                         00000016
PULA_UMIDA                        0000041C
PWM                               PORTB,3
PWM_MOTOR                         0X52
PWM_P                             0X53
R                                 00000002
RA0                               00000000
RA1                               00000001
MPASM 5.87                   VAI DAR BOM.ASM   12-15-2020  2:16:19         PAGE 84


SYMBOL TABLE
  LABEL                             VALUE 

RA2                               00000002
RA3                               00000003
RA4                               00000004
RA5                               00000005
RA6                               00000006
RB0                               00000000
RB1                               00000001
RB2                               00000002
RB3                               00000003
RB4                               00000004
RB5                               00000005
RB6                               00000006
RB7                               00000007
RBIE                              00000003
RBIF                              00000000
RBIP                              00000000
RBPU                              00000007
RC0                               00000000
RC1                               00000001
RC2                               00000002
RC4                               00000004
RC5                               00000005
RC6                               00000006
RC7                               00000007
RCEN                              00000003
RCIDL                             00000006
RCIE                              00000005
RCIF                              00000005
RCIP                              00000005
RCMT                              00000006
RCON                              00000FD0
RCREG                             00000FAE
RCSTA                             00000FAB
RD                                00000000
RD0                               00000000
RD1                               00000001
RD16                              00000007
RD2                               00000002
RD3                               00000003
RD4                               00000004
RD5                               00000005
RD6                               00000006
RD7                               00000007
RDPU                              00000007
RDSPP                             00000007
RE0                               00000000
RE1                               00000001
RE2                               00000002
RE3                               00000003
READ_WRITE                        00000002
RELE                              PORTD,0
REQ_FLAG                          FLAG,1
REQ_L                             000002AC
MPASM 5.87                   VAI DAR BOM.ASM   12-15-2020  2:16:19         PAGE 85


SYMBOL TABLE
  LABEL                             VALUE 

REQ_T                             0000020C
REQ_U                             00000194
REQ_WEB_L                         000002B2
REQ_WEB_T                         00000212
REQ_WEB_U                         0000019A
RESULTADO                         0X39
RESULTADO_DIVI                    0X3D
RESULT_MAIS                       FLAG,6
RESULT_MENO                       FLAG,7
RESULT_OK                         FLAG,5
RESUME                            00000002
RI                                00000004
RSEN                              00000001
RX                                00000007
RX9                               00000006
RX9D                              00000000
RXDTP                             00000005
R_NOT_W                           00000002
R_SELECAO                         00001092
R_W                               00000002
RxError                           00000042
S                                 00000003
S1                                000008E6
S1_1                              0000097A
S2                                00000A56
S3                                00000A5A
SAIDAS_ENTER                      000008B4
SAIDA_S                           00000852
SALSINHA                          0000016A
SALSINHA_LCD                      00001014
SALSINHA_SE                       0000033A
SBOREN                            00000006
SCKP                              00000004
SCS0                              00000000
SCS1                              00000001
SE0                               00000005
SELECAO                           0X3A
SELECAO_E                         0X46
SELECT_E                          00001074
SELECT_S                          00001084
SEN                               00000000
SENDB                             00000003
SENSORES                          00000E10
SENSORES_ENTER                    00000E6A
SET_TEMPO                         FLAG,0
SMP                               00000007
SOBRE_CORRENTE                    0000004C
SOFIE                             00000006
SOFIF                             00000006
SOMA_02                           0000045A
SOMA_30H                          000004E2
SPBRG                             00000FAF
SPBRGH                            00000FB0
MPASM 5.87                   VAI DAR BOM.ASM   12-15-2020  2:16:19         PAGE 86


SYMBOL TABLE
  LABEL                             VALUE 

SPEN                              00000007
SPP0                              00000000
SPP1                              00000001
SPP2                              00000002
SPP3                              00000003
SPP4                              00000004
SPP5                              00000005
SPP6                              00000006
SPP7                              00000007
SPPBUSY                           00000004
SPPCFG                            00000F63
SPPCON                            00000F65
SPPDATA                           00000F62
SPPEN                             00000000
SPPEPS                            00000F64
SPPIE                             00000007
SPPIF                             00000007
SPPIP                             00000007
SPPOWN                            00000001
SREN                              00000005
SSPADD                            00000FC8
SSPBUF                            00000FC9
SSPCON1                           00000FC6
SSPCON2                           00000FC5
SSPEN                             00000005
SSPIE                             00000003
SSPIF                             00000003
SSPIP                             00000003
SSPM0                             00000000
SSPM1                             00000001
SSPM2                             00000002
SSPM3                             00000003
SSPOV                             00000006
SSPSTAT                           00000FC7
STALLIE                           00000005
STALLIF                           00000005
START                             00000000
STATUS                            00000FD8
STATUS_TEMP                       0X22
STKFUL                            00000007
STKOVF                            00000007
STKPTR                            00000FFC
STKPTR0                           00000000
STKPTR1                           00000001
STKPTR2                           00000002
STKPTR3                           00000003
STKPTR4                           00000004
STKUNF                            00000006
SUSPND                            00000001
SWDTE                             00000000
SWDTEN                            00000000
SYNC                              00000004
T08BIT                            00000006
MPASM 5.87                   VAI DAR BOM.ASM   12-15-2020  2:16:19         PAGE 87


SYMBOL TABLE
  LABEL                             VALUE 

T0CKI                             00000004
T0CON                             00000FD5
T0CS                              00000005
T0IE                              00000005
T0IF                              00000002
T0IP                              00000002
T0PS0                             00000000
T0PS1                             00000001
T0PS2                             00000002
T0SE                              00000004
T13CKI                            00000000
T1CKPS0                           00000004
T1CKPS1                           00000005
T1CON                             00000FCD
T1OSCEN                           00000003
T1OSI                             00000001
T1OSO                             00000000
T1RUN                             00000006
T1SYNC                            00000002
T2CKPS0                           00000000
T2CKPS1                           00000001
T2CON                             00000FCA
T2OUTPS0                          00000003
T2OUTPS1                          00000004
T2OUTPS2                          00000005
T2OUTPS3                          00000006
T3CCP1                            00000003
T3CCP2                            00000006
T3CKPS0                           00000004
T3CKPS1                           00000005
T3CON                             00000FB1
T3NSYNC                           00000002
T3SYNC                            00000002
TABLAT                            00000FF5
TBLPTR                            00000FF6
TBLPTRH                           00000FF7
TBLPTRL                           00000FF6
TBLPTRU                           00000FF8
TELA_INICIO                       0000064A
TELA_LCD                          000005C4
TEMP                              000013A4
TEMPERATURA                       0X33
TEMPERATURA_L                     0X3E
TEMPERATURA_LCD                   00000EA6
TEMPO0                            0X23
TEMPO1                            0X24
TEMPO2                            0x25
TEMP_                             0000047A
TEMP_DIVI                         FLAG02,2
TEMP_IDEIAL_MAX                   0X34
TEMP_IDEIAL_MIN                   0X47
TEMP_LCD                          00000AFE
TERMINOU_L                        FLAG01,2
MPASM 5.87                   VAI DAR BOM.ASM   12-15-2020  2:16:19         PAGE 88


SYMBOL TABLE
  LABEL                             VALUE 

TESTA_LCD                         0000133A
TESTE                             0X38
TESTES_ESTADO                     000006CC
TESTE_DEZENA                      000004BC
TESTE_DEZENA_FIM                  000004CE
TESTE_ENTRA_1                     00000830
TESTE_LINHA                       0x28
TEXTO_DIR                         00001134
TEXTO_ERRO_MOTOR                  00000134
TEXTO_ESQ                         0000113C
TEXTO_PLANTA                      000003DA
TMPLCDREGISTER                    0x27
TMR0                              00000FD6
TMR0H                             00000FD7
TMR0IE                            00000005
TMR0IF                            00000002
TMR0IP                            00000002
TMR0L                             00000FD6
TMR0ON                            00000007
TMR1                              00000FCE
TMR1CS                            00000001
TMR1H                             00000FCF
TMR1IE                            00000000
TMR1IF                            00000000
TMR1IP                            00000000
TMR1L                             00000FCE
TMR1ON                            00000000
TMR2                              00000FCC
TMR2IE                            00000001
TMR2IF                            00000001
TMR2IP                            00000001
TMR2ON                            00000002
TMR3                              00000FB2
TMR3CS                            00000001
TMR3H                             00000FB3
TMR3IE                            00000001
TMR3IF                            00000001
TMR3IP                            00000001
TMR3L                             00000FB2
TMR3ON                            00000000
TO                                00000003
TOS                               00000FFD
TOSH                              00000FFE
TOSL                              00000FFD
TOSU                              00000FFF
TOUTPS0                           00000003
TOUTPS1                           00000004
TOUTPS2                           00000005
TOUTPS3                           00000006
TRANFORMA_ASCII                   00000494
TRATA_DADO                        0000019E
TRATA_RX                          0000002E
TRATA_VALORES                     000004F2
MPASM 5.87                   VAI DAR BOM.ASM   12-15-2020  2:16:19         PAGE 89


SYMBOL TABLE
  LABEL                             VALUE 

TRAVA_                            0000007C
TRAVA_MOTOR                       FLAG02,6
TRISA                             00000F92
TRISA0                            00000000
TRISA1                            00000001
TRISA2                            00000002
TRISA3                            00000003
TRISA4                            00000004
TRISA5                            00000005
TRISA6                            00000006
TRISB                             00000F93
TRISB0                            00000000
TRISB1                            00000001
TRISB2                            00000002
TRISB3                            00000003
TRISB4                            00000004
TRISB5                            00000005
TRISB6                            00000006
TRISB7                            00000007
TRISC                             00000F94
TRISC0                            00000000
TRISC1                            00000001
TRISC2                            00000002
TRISC6                            00000006
TRISC7                            00000007
TRISD                             00000F95
TRISD0                            00000000
TRISD1                            00000001
TRISD2                            00000002
TRISD3                            00000003
TRISD4                            00000004
TRISD5                            00000005
TRISD6                            00000006
TRISD7                            00000007
TRISE                             00000F96
TRISE0                            00000000
TRISE1                            00000001
TRISE2                            00000002
TRMT                              00000001
TRNIE                             00000003
TRNIF                             00000003
TUN0                              00000000
TUN1                              00000001
TUN2                              00000002
TUN3                              00000003
TUN4                              00000004
TX                                00000006
TX9                               00000006
TX9D                              00000000
TXCKP                             00000004
TXEN                              00000005
TXIE                              00000004
TXIF                              00000004
MPASM 5.87                   VAI DAR BOM.ASM   12-15-2020  2:16:19         PAGE 90


SYMBOL TABLE
  LABEL                             VALUE 

TXIP                              00000004
TXREG                             00000FAD
TXSTA                             00000FAC
UA                                00000001
UADDR                             00000F6E
UCFG                              00000F6F
UCON                              00000F6D
UEIE                              00000F6B
UEIR                              00000F6A
UEP0                              00000F70
UEP1                              00000F71
UEP10                             00000F7A
UEP11                             00000F7B
UEP12                             00000F7C
UEP13                             00000F7D
UEP14                             00000F7E
UEP15                             00000F7F
UEP2                              00000F72
UEP3                              00000F73
UEP4                              00000F74
UEP5                              00000F75
UEP6                              00000F76
UEP7                              00000F77
UEP8                              00000F78
UEP9                              00000F79
UERRIE                            00000001
UERRIF                            00000001
UFRM                              00000F66
UFRMH                             00000F67
UFRML                             00000F66
UIE                               00000F69
UIR                               00000F68
UMIDADE                           0X31
UMIDADE_L                         0X40
UMIDADE_LCD                       00000F02
UMID_IDEIAL_MAX                   0X35
UMID_IDEIAL_MIN                   0X48
UMI_                              00000472
UMI_LCD                           00000C0C
UNIDADE                           0X43
UOEMON                            00000006
UPUEN                             00000004
URSTIE                            00000000
URSTIF                            00000000
USBEN                             00000003
USBIE                             00000005
USBIF                             00000005
USBIP                             00000005
USTAT                             00000F6C
UTEYE                             00000007
UTRDIS                            00000003
VALOR                             0x41
VALOR_ADC                         0X20
MPASM 5.87                   VAI DAR BOM.ASM   12-15-2020  2:16:19         PAGE 91


SYMBOL TABLE
  LABEL                             VALUE 

VALOR_B                           0X42
VAR1                              0X29
VAR2                              0x2A
VCFG0                             00000004
VCFG1                             00000005
VDIRMAG                           00000007
VENTI                             PORTE,3
VENTILADOR                        FLAG01,6
VERDE                             000013E0
VERIFICA_MAIS                     000005AE
VERIFICA_MENOS                    000005BA
VERIFICA_MOTOR                    000000DC
VERMELHO                          000014FC
VER_LUMINOSIDADE                  00000512
VER_TEMPERATURA                   000004F2
VER_UMIDADE                       00000536
VREFM                             00000002
VREFP                             00000003
W                                 00000000
WCOL                              00000007
WDTCON                            00000FD1
WR                                00000001
WREG                              00000FE8
WREN                              00000002
WRERR                             00000003
WRSPP                             00000006
WS0                               00000000
WS1                               00000001
WS2                               00000002
WS3                               00000003
WUE                               00000001
W_TEMP                            0X21
Z                                 00000002
_BORV_0_2L                        000000E7
_BORV_1_2L                        000000EF
_BORV_2_2L                        000000F7
_BORV_3_2L                        000000FF
_BOR_OFF_2L                       000000F9
_BOR_ON_2L                        000000FF
_BOR_ON_ACTIVE_2L                 000000FD
_BOR_SOFT_2L                      000000FB
_CCP2MX_OFF_3H                    000000FE
_CCP2MX_ON_3H                     000000FF
_CONFIG1H                         00300001
_CONFIG1L                         00300000
_CONFIG2H                         00300003
_CONFIG2L                         00300002
_CONFIG3H                         00300005
_CONFIG4L                         00300006
_CONFIG5H                         00300009
_CONFIG5L                         00300008
_CONFIG6H                         0030000B
_CONFIG6L                         0030000A
MPASM 5.87                   VAI DAR BOM.ASM   12-15-2020  2:16:19         PAGE 92


SYMBOL TABLE
  LABEL                             VALUE 

_CONFIG7H                         0030000D
_CONFIG7L                         0030000C
_CP0_OFF_5L                       000000FF
_CP0_ON_5L                        000000FE
_CP1_OFF_5L                       000000FF
_CP1_ON_5L                        000000FD
_CP2_OFF_5L                       000000FF
_CP2_ON_5L                        000000FB
_CP3_OFF_5L                       000000FF
_CP3_ON_5L                        000000F7
_CPB_OFF_5H                       000000FF
_CPB_ON_5H                        000000BF
_CPD_OFF_5H                       000000FF
_CPD_ON_5H                        0000007F
_CPUDIV_OSC1_PLL2_1L              000000E7
_CPUDIV_OSC2_PLL3_1L              000000EF
_CPUDIV_OSC3_PLL4_1L              000000F7
_CPUDIV_OSC4_PLL6_1L              000000FF
_DEBUG_OFF_4L                     000000FF
_DEBUG_ON_4L                      0000007F
_DEVID1                           003FFFFE
_DEVID2                           003FFFFF
_EBTR0_OFF_7L                     000000FF
_EBTR0_ON_7L                      000000FE
_EBTR1_OFF_7L                     000000FF
_EBTR1_ON_7L                      000000FD
_EBTR2_OFF_7L                     000000FF
_EBTR2_ON_7L                      000000FB
_EBTR3_OFF_7L                     000000FF
_EBTR3_ON_7L                      000000F7
_EBTRB_OFF_7H                     000000FF
_EBTRB_ON_7H                      000000BF
_FCMEN_OFF_1H                     000000BF
_FCMEN_ON_1H                      000000FF
_FOSC_ECIO_EC_1H                  000000F4
_FOSC_ECPLLIO_EC_1H               000000F6
_FOSC_ECPLL_EC_1H                 000000F7
_FOSC_EC_EC_1H                    000000F5
_FOSC_HSPLL_HS_1H                 000000FE
_FOSC_HS_1H                       000000FC
_FOSC_INTOSCIO_EC_1H              000000F8
_FOSC_INTOSC_EC_1H                000000F9
_FOSC_INTOSC_HS_1H                000000FB
_FOSC_INTOSC_XT_1H                000000FA
_FOSC_XTPLL_XT_1H                 000000F2
_FOSC_XT_XT_1H                    000000F0
_ICPRT_OFF_4L                     000000DF
_ICPRT_ON_4L                      000000FF
_IDLOC0                           00200000
_IDLOC1                           00200001
_IDLOC2                           00200002
_IDLOC3                           00200003
_IDLOC4                           00200004
MPASM 5.87                   VAI DAR BOM.ASM   12-15-2020  2:16:19         PAGE 93


SYMBOL TABLE
  LABEL                             VALUE 

_IDLOC5                           00200005
_IDLOC6                           00200006
_IDLOC7                           00200007
_IESO_OFF_1H                      0000007F
_IESO_ON_1H                       000000FF
_LPT1OSC_OFF_3H                   000000FB
_LPT1OSC_ON_3H                    000000FF
_LVP_OFF_4L                       000000FB
_LVP_ON_4L                        000000FF
_MCLRE_OFF_3H                     0000007F
_MCLRE_ON_3H                      000000FF
_PBADEN_OFF_3H                    000000FD
_PBADEN_ON_3H                     000000FF
_PLLDIV_10_1L                     000000FE
_PLLDIV_12_1L                     000000FF
_PLLDIV_1_1L                      000000F8
_PLLDIV_2_1L                      000000F9
_PLLDIV_3_1L                      000000FA
_PLLDIV_4_1L                      000000FB
_PLLDIV_5_1L                      000000FC
_PLLDIV_6_1L                      000000FD
_PWRT_OFF_2L                      000000FF
_PWRT_ON_2L                       000000FE
_STVREN_OFF_4L                    000000FE
_STVREN_ON_4L                     000000FF
_USBDIV_1_1L                      000000DF
_USBDIV_2_1L                      000000FF
_VREGEN_OFF_2L                    000000DF
_VREGEN_ON_2L                     000000FF
_WDTPS_1024_2H                    000000F5
_WDTPS_128_2H                     000000EF
_WDTPS_16384_2H                   000000FD
_WDTPS_16_2H                      000000E9
_WDTPS_1_2H                       000000E1
_WDTPS_2048_2H                    000000F7
_WDTPS_256_2H                     000000F1
_WDTPS_2_2H                       000000E3
_WDTPS_32768_2H                   000000FF
_WDTPS_32_2H                      000000EB
_WDTPS_4096_2H                    000000F9
_WDTPS_4_2H                       000000E5
_WDTPS_512_2H                     000000F3
_WDTPS_64_2H                      000000ED
_WDTPS_8192_2H                    000000FB
_WDTPS_8_2H                       000000E7
_WDT_OFF_2H                       000000FE
_WDT_ON_2H                        000000FF
_WRT0_OFF_6L                      000000FF
_WRT0_ON_6L                       000000FE
_WRT1_OFF_6L                      000000FF
_WRT1_ON_6L                       000000FD
_WRT2_OFF_6L                      000000FF
_WRT2_ON_6L                       000000FB
MPASM 5.87                   VAI DAR BOM.ASM   12-15-2020  2:16:19         PAGE 94


SYMBOL TABLE
  LABEL                             VALUE 

_WRT3_OFF_6L                      000000FF
_WRT3_ON_6L                       000000F7
_WRTB_OFF_6H                      000000FF
_WRTB_ON_6H                       000000BF
_WRTC_OFF_6H                      000000FF
_WRTC_ON_6H                       000000DF
_WRTD_OFF_6H                      000000FF
_WRTD_ON_6H                       0000007F
_XINST_OFF_4L                     000000BF
_XINST_ON_4L                      000000FF
__18F4550                         00000001

Errors   :     0
Warnings :     0 reported,     0 suppressed
Messages :     0 reported,     0 suppressed

